Archive member included to satisfy reference by file (symbol)

c:/intelfpga_lite/18.1/nios2eds/bin/gnu/h-x86_64-mingw32/bin/../lib/gcc/nios2-elf/5.3.0\libgcc.a(lib2-divmod.o)
                              obj/default/hello_ucosii.o (__modsi3)
c:/intelfpga_lite/18.1/nios2eds/bin/gnu/h-x86_64-mingw32/bin/../lib/gcc/nios2-elf/5.3.0/../../../../../H-x86_64-mingw32/nios2-elf/lib\libc.a(lib_a-puts.o)
                              obj/default/hello_ucosii.o (puts)
c:/intelfpga_lite/18.1/nios2eds/bin/gnu/h-x86_64-mingw32/bin/../lib/gcc/nios2-elf/5.3.0/../../../../../H-x86_64-mingw32/nios2-elf/lib\libc.a(lib_a-strlen.o)
                              c:/intelfpga_lite/18.1/nios2eds/bin/gnu/h-x86_64-mingw32/bin/../lib/gcc/nios2-elf/5.3.0/../../../../../H-x86_64-mingw32/nios2-elf/lib\libc.a(lib_a-puts.o) (strlen)
c:/intelfpga_lite/18.1/nios2eds/bin/gnu/h-x86_64-mingw32/bin/../lib/gcc/nios2-elf/5.3.0/../../../../../H-x86_64-mingw32/nios2-elf/lib\libc.a(lib_a-findfp.o)
                              c:/intelfpga_lite/18.1/nios2eds/bin/gnu/h-x86_64-mingw32/bin/../lib/gcc/nios2-elf/5.3.0/../../../../../H-x86_64-mingw32/nios2-elf/lib\libc.a(lib_a-puts.o) (__sinit)
c:/intelfpga_lite/18.1/nios2eds/bin/gnu/h-x86_64-mingw32/bin/../lib/gcc/nios2-elf/5.3.0/../../../../../H-x86_64-mingw32/nios2-elf/lib\libc.a(lib_a-fvwrite.o)
                              c:/intelfpga_lite/18.1/nios2eds/bin/gnu/h-x86_64-mingw32/bin/../lib/gcc/nios2-elf/5.3.0/../../../../../H-x86_64-mingw32/nios2-elf/lib\libc.a(lib_a-puts.o) (__sfvwrite_r)
c:/intelfpga_lite/18.1/nios2eds/bin/gnu/h-x86_64-mingw32/bin/../lib/gcc/nios2-elf/5.3.0/../../../../../H-x86_64-mingw32/nios2-elf/lib\libc.a(lib_a-fwalk.o)
                              c:/intelfpga_lite/18.1/nios2eds/bin/gnu/h-x86_64-mingw32/bin/../lib/gcc/nios2-elf/5.3.0/../../../../../H-x86_64-mingw32/nios2-elf/lib\libc.a(lib_a-findfp.o) (_fwalk)
c:/intelfpga_lite/18.1/nios2eds/bin/gnu/h-x86_64-mingw32/bin/../lib/gcc/nios2-elf/5.3.0/../../../../../H-x86_64-mingw32/nios2-elf/lib\libc.a(lib_a-impure.o)
                              c:/intelfpga_lite/18.1/nios2eds/bin/gnu/h-x86_64-mingw32/bin/../lib/gcc/nios2-elf/5.3.0/../../../../../H-x86_64-mingw32/nios2-elf/lib\libc.a(lib_a-findfp.o) (_global_impure_ptr)
c:/intelfpga_lite/18.1/nios2eds/bin/gnu/h-x86_64-mingw32/bin/../lib/gcc/nios2-elf/5.3.0/../../../../../H-x86_64-mingw32/nios2-elf/lib\libc.a(lib_a-mallocr.o)
                              c:/intelfpga_lite/18.1/nios2eds/bin/gnu/h-x86_64-mingw32/bin/../lib/gcc/nios2-elf/5.3.0/../../../../../H-x86_64-mingw32/nios2-elf/lib\libc.a(lib_a-findfp.o) (_malloc_r)
c:/intelfpga_lite/18.1/nios2eds/bin/gnu/h-x86_64-mingw32/bin/../lib/gcc/nios2-elf/5.3.0/../../../../../H-x86_64-mingw32/nios2-elf/lib\libc.a(lib_a-memchr.o)
                              c:/intelfpga_lite/18.1/nios2eds/bin/gnu/h-x86_64-mingw32/bin/../lib/gcc/nios2-elf/5.3.0/../../../../../H-x86_64-mingw32/nios2-elf/lib\libc.a(lib_a-fvwrite.o) (memchr)
c:/intelfpga_lite/18.1/nios2eds/bin/gnu/h-x86_64-mingw32/bin/../lib/gcc/nios2-elf/5.3.0/../../../../../H-x86_64-mingw32/nios2-elf/lib\libc.a(lib_a-memcpy.o)
                              c:/intelfpga_lite/18.1/nios2eds/bin/gnu/h-x86_64-mingw32/bin/../lib/gcc/nios2-elf/5.3.0/../../../../../H-x86_64-mingw32/nios2-elf/lib\libc.a(lib_a-fvwrite.o) (memcpy)
c:/intelfpga_lite/18.1/nios2eds/bin/gnu/h-x86_64-mingw32/bin/../lib/gcc/nios2-elf/5.3.0/../../../../../H-x86_64-mingw32/nios2-elf/lib\libc.a(lib_a-memmove.o)
                              c:/intelfpga_lite/18.1/nios2eds/bin/gnu/h-x86_64-mingw32/bin/../lib/gcc/nios2-elf/5.3.0/../../../../../H-x86_64-mingw32/nios2-elf/lib\libc.a(lib_a-fvwrite.o) (memmove)
c:/intelfpga_lite/18.1/nios2eds/bin/gnu/h-x86_64-mingw32/bin/../lib/gcc/nios2-elf/5.3.0/../../../../../H-x86_64-mingw32/nios2-elf/lib\libc.a(lib_a-memset.o)
                              c:/intelfpga_lite/18.1/nios2eds/bin/gnu/h-x86_64-mingw32/bin/../lib/gcc/nios2-elf/5.3.0/../../../../../H-x86_64-mingw32/nios2-elf/lib\libc.a(lib_a-findfp.o) (memset)
c:/intelfpga_lite/18.1/nios2eds/bin/gnu/h-x86_64-mingw32/bin/../lib/gcc/nios2-elf/5.3.0/../../../../../H-x86_64-mingw32/nios2-elf/lib\libc.a(lib_a-reallocr.o)
                              c:/intelfpga_lite/18.1/nios2eds/bin/gnu/h-x86_64-mingw32/bin/../lib/gcc/nios2-elf/5.3.0/../../../../../H-x86_64-mingw32/nios2-elf/lib\libc.a(lib_a-fvwrite.o) (_realloc_r)
c:/intelfpga_lite/18.1/nios2eds/bin/gnu/h-x86_64-mingw32/bin/../lib/gcc/nios2-elf/5.3.0/../../../../../H-x86_64-mingw32/nios2-elf/lib\libc.a(lib_a-sbrkr.o)
                              c:/intelfpga_lite/18.1/nios2eds/bin/gnu/h-x86_64-mingw32/bin/../lib/gcc/nios2-elf/5.3.0/../../../../../H-x86_64-mingw32/nios2-elf/lib\libc.a(lib_a-mallocr.o) (_sbrk_r)
c:/intelfpga_lite/18.1/nios2eds/bin/gnu/h-x86_64-mingw32/bin/../lib/gcc/nios2-elf/5.3.0/../../../../../H-x86_64-mingw32/nios2-elf/lib\libc.a(lib_a-stdio.o)
                              c:/intelfpga_lite/18.1/nios2eds/bin/gnu/h-x86_64-mingw32/bin/../lib/gcc/nios2-elf/5.3.0/../../../../../H-x86_64-mingw32/nios2-elf/lib\libc.a(lib_a-findfp.o) (__sread)
c:/intelfpga_lite/18.1/nios2eds/bin/gnu/h-x86_64-mingw32/bin/../lib/gcc/nios2-elf/5.3.0/../../../../../H-x86_64-mingw32/nios2-elf/lib\libc.a(lib_a-writer.o)
                              c:/intelfpga_lite/18.1/nios2eds/bin/gnu/h-x86_64-mingw32/bin/../lib/gcc/nios2-elf/5.3.0/../../../../../H-x86_64-mingw32/nios2-elf/lib\libc.a(lib_a-stdio.o) (_write_r)
c:/intelfpga_lite/18.1/nios2eds/bin/gnu/h-x86_64-mingw32/bin/../lib/gcc/nios2-elf/5.3.0/../../../../../H-x86_64-mingw32/nios2-elf/lib\libc.a(lib_a-wsetup.o)
                              c:/intelfpga_lite/18.1/nios2eds/bin/gnu/h-x86_64-mingw32/bin/../lib/gcc/nios2-elf/5.3.0/../../../../../H-x86_64-mingw32/nios2-elf/lib\libc.a(lib_a-fvwrite.o) (__swsetup_r)
c:/intelfpga_lite/18.1/nios2eds/bin/gnu/h-x86_64-mingw32/bin/../lib/gcc/nios2-elf/5.3.0/../../../../../H-x86_64-mingw32/nios2-elf/lib\libc.a(closer.o)
                              c:/intelfpga_lite/18.1/nios2eds/bin/gnu/h-x86_64-mingw32/bin/../lib/gcc/nios2-elf/5.3.0/../../../../../H-x86_64-mingw32/nios2-elf/lib\libc.a(lib_a-stdio.o) (_close_r)
c:/intelfpga_lite/18.1/nios2eds/bin/gnu/h-x86_64-mingw32/bin/../lib/gcc/nios2-elf/5.3.0/../../../../../H-x86_64-mingw32/nios2-elf/lib\libc.a(lib_a-fclose.o)
                              c:/intelfpga_lite/18.1/nios2eds/bin/gnu/h-x86_64-mingw32/bin/../lib/gcc/nios2-elf/5.3.0/../../../../../H-x86_64-mingw32/nios2-elf/lib\libc.a(lib_a-findfp.o) (_fclose_r)
c:/intelfpga_lite/18.1/nios2eds/bin/gnu/h-x86_64-mingw32/bin/../lib/gcc/nios2-elf/5.3.0/../../../../../H-x86_64-mingw32/nios2-elf/lib\libc.a(lib_a-fflush.o)
                              c:/intelfpga_lite/18.1/nios2eds/bin/gnu/h-x86_64-mingw32/bin/../lib/gcc/nios2-elf/5.3.0/../../../../../H-x86_64-mingw32/nios2-elf/lib\libc.a(lib_a-fclose.o) (__sflush_r)
c:/intelfpga_lite/18.1/nios2eds/bin/gnu/h-x86_64-mingw32/bin/../lib/gcc/nios2-elf/5.3.0/../../../../../H-x86_64-mingw32/nios2-elf/lib\libc.a(lib_a-freer.o)
                              c:/intelfpga_lite/18.1/nios2eds/bin/gnu/h-x86_64-mingw32/bin/../lib/gcc/nios2-elf/5.3.0/../../../../../H-x86_64-mingw32/nios2-elf/lib\libc.a(lib_a-fvwrite.o) (_free_r)
c:/intelfpga_lite/18.1/nios2eds/bin/gnu/h-x86_64-mingw32/bin/../lib/gcc/nios2-elf/5.3.0/../../../../../H-x86_64-mingw32/nios2-elf/lib\libc.a(lib_a-int_errno.o)
                              c:/intelfpga_lite/18.1/nios2eds/bin/gnu/h-x86_64-mingw32/bin/../lib/gcc/nios2-elf/5.3.0/../../../../../H-x86_64-mingw32/nios2-elf/lib\libc.a(lib_a-sbrkr.o) (errno)
c:/intelfpga_lite/18.1/nios2eds/bin/gnu/h-x86_64-mingw32/bin/../lib/gcc/nios2-elf/5.3.0/../../../../../H-x86_64-mingw32/nios2-elf/lib\libc.a(lib_a-lseekr.o)
                              c:/intelfpga_lite/18.1/nios2eds/bin/gnu/h-x86_64-mingw32/bin/../lib/gcc/nios2-elf/5.3.0/../../../../../H-x86_64-mingw32/nios2-elf/lib\libc.a(lib_a-stdio.o) (_lseek_r)
c:/intelfpga_lite/18.1/nios2eds/bin/gnu/h-x86_64-mingw32/bin/../lib/gcc/nios2-elf/5.3.0/../../../../../H-x86_64-mingw32/nios2-elf/lib\libc.a(lib_a-makebuf.o)
                              c:/intelfpga_lite/18.1/nios2eds/bin/gnu/h-x86_64-mingw32/bin/../lib/gcc/nios2-elf/5.3.0/../../../../../H-x86_64-mingw32/nios2-elf/lib\libc.a(lib_a-wsetup.o) (__smakebuf_r)
c:/intelfpga_lite/18.1/nios2eds/bin/gnu/h-x86_64-mingw32/bin/../lib/gcc/nios2-elf/5.3.0/../../../../../H-x86_64-mingw32/nios2-elf/lib\libc.a(lib_a-readr.o)
                              c:/intelfpga_lite/18.1/nios2eds/bin/gnu/h-x86_64-mingw32/bin/../lib/gcc/nios2-elf/5.3.0/../../../../../H-x86_64-mingw32/nios2-elf/lib\libc.a(lib_a-stdio.o) (_read_r)
c:/intelfpga_lite/18.1/nios2eds/bin/gnu/h-x86_64-mingw32/bin/../lib/gcc/nios2-elf/5.3.0/../../../../../H-x86_64-mingw32/nios2-elf/lib\libc.a(lib_a-fstatr.o)
                              c:/intelfpga_lite/18.1/nios2eds/bin/gnu/h-x86_64-mingw32/bin/../lib/gcc/nios2-elf/5.3.0/../../../../../H-x86_64-mingw32/nios2-elf/lib\libc.a(lib_a-makebuf.o) (_fstat_r)
c:/intelfpga_lite/18.1/nios2eds/bin/gnu/h-x86_64-mingw32/bin/../lib/gcc/nios2-elf/5.3.0/../../../../../H-x86_64-mingw32/nios2-elf/lib\libc.a(lib_a-isattyr.o)
                              c:/intelfpga_lite/18.1/nios2eds/bin/gnu/h-x86_64-mingw32/bin/../lib/gcc/nios2-elf/5.3.0/../../../../../H-x86_64-mingw32/nios2-elf/lib\libc.a(lib_a-makebuf.o) (_isatty_r)
../RTOS_bsp/\libucosii_bsp.a(alt_close.o)
                              c:/intelfpga_lite/18.1/nios2eds/bin/gnu/h-x86_64-mingw32/bin/../lib/gcc/nios2-elf/5.3.0/../../../../../H-x86_64-mingw32/nios2-elf/lib\libc.a(closer.o) (close)
../RTOS_bsp/\libucosii_bsp.a(alt_dev.o)
                              ../RTOS_bsp/\libucosii_bsp.a(alt_close.o) (alt_fd_list)
../RTOS_bsp/\libucosii_bsp.a(alt_errno.o)
                              ../RTOS_bsp/\libucosii_bsp.a(alt_close.o) (alt_errno)
../RTOS_bsp/\libucosii_bsp.a(alt_fstat.o)
                              c:/intelfpga_lite/18.1/nios2eds/bin/gnu/h-x86_64-mingw32/bin/../lib/gcc/nios2-elf/5.3.0/../../../../../H-x86_64-mingw32/nios2-elf/lib\libc.a(lib_a-fstatr.o) (fstat)
../RTOS_bsp/\libucosii_bsp.a(alt_isatty.o)
                              c:/intelfpga_lite/18.1/nios2eds/bin/gnu/h-x86_64-mingw32/bin/../lib/gcc/nios2-elf/5.3.0/../../../../../H-x86_64-mingw32/nios2-elf/lib\libc.a(lib_a-isattyr.o) (isatty)
../RTOS_bsp/\libucosii_bsp.a(alt_load.o)
                              ../RTOS_bsp//obj/HAL/src/crt0.o (alt_load)
../RTOS_bsp/\libucosii_bsp.a(alt_lseek.o)
                              c:/intelfpga_lite/18.1/nios2eds/bin/gnu/h-x86_64-mingw32/bin/../lib/gcc/nios2-elf/5.3.0/../../../../../H-x86_64-mingw32/nios2-elf/lib\libc.a(lib_a-lseekr.o) (lseek)
../RTOS_bsp/\libucosii_bsp.a(alt_main.o)
                              ../RTOS_bsp//obj/HAL/src/crt0.o (alt_main)
../RTOS_bsp/\libucosii_bsp.a(alt_putchar.o)
                              obj/default/hello_ucosii.o (alt_putchar)
../RTOS_bsp/\libucosii_bsp.a(alt_putstr.o)
                              obj/default/hello_ucosii.o (alt_putstr)
../RTOS_bsp/\libucosii_bsp.a(alt_read.o)
                              c:/intelfpga_lite/18.1/nios2eds/bin/gnu/h-x86_64-mingw32/bin/../lib/gcc/nios2-elf/5.3.0/../../../../../H-x86_64-mingw32/nios2-elf/lib\libc.a(lib_a-readr.o) (read)
../RTOS_bsp/\libucosii_bsp.a(alt_release_fd.o)
                              ../RTOS_bsp/\libucosii_bsp.a(alt_close.o) (alt_release_fd)
../RTOS_bsp/\libucosii_bsp.a(alt_sbrk.o)
                              c:/intelfpga_lite/18.1/nios2eds/bin/gnu/h-x86_64-mingw32/bin/../lib/gcc/nios2-elf/5.3.0/../../../../../H-x86_64-mingw32/nios2-elf/lib\libc.a(lib_a-sbrkr.o) (sbrk)
../RTOS_bsp/\libucosii_bsp.a(alt_write.o)
                              c:/intelfpga_lite/18.1/nios2eds/bin/gnu/h-x86_64-mingw32/bin/../lib/gcc/nios2-elf/5.3.0/../../../../../H-x86_64-mingw32/nios2-elf/lib\libc.a(lib_a-writer.o) (write)
../RTOS_bsp/\libucosii_bsp.a(alt_env_lock.o)
                              ../RTOS_bsp/\libucosii_bsp.a(alt_main.o) (alt_envsem)
../RTOS_bsp/\libucosii_bsp.a(alt_malloc_lock.o)
                              ../RTOS_bsp/\libucosii_bsp.a(alt_main.o) (alt_heapsem)
../RTOS_bsp/\libucosii_bsp.a(os_core.o)
                              ../RTOS_bsp/\libucosii_bsp.a(alt_malloc_lock.o) (OSRunning)
../RTOS_bsp/\libucosii_bsp.a(os_dbg.o)
                              ../RTOS_bsp/\libucosii_bsp.a(os_core.o) (OSDebugInit)
../RTOS_bsp/\libucosii_bsp.a(os_flag.o)
                              ../RTOS_bsp/\libucosii_bsp.a(os_core.o) (OS_FlagInit)
../RTOS_bsp/\libucosii_bsp.a(os_mem.o)
                              ../RTOS_bsp/\libucosii_bsp.a(os_core.o) (OS_MemInit)
../RTOS_bsp/\libucosii_bsp.a(os_q.o)
                              ../RTOS_bsp/\libucosii_bsp.a(os_core.o) (OS_QInit)
../RTOS_bsp/\libucosii_bsp.a(os_sem.o)
                              ../RTOS_bsp/\libucosii_bsp.a(alt_main.o) (OSSemCreate)
../RTOS_bsp/\libucosii_bsp.a(os_task.o)
                              obj/default/hello_ucosii.o (OSTaskCreateExt)
../RTOS_bsp/\libucosii_bsp.a(os_time.o)
                              ../RTOS_bsp/\libucosii_bsp.a(os_core.o) (OSTimeDly)
../RTOS_bsp/\libucosii_bsp.a(alt_sys_init.o)
                              ../RTOS_bsp/\libucosii_bsp.a(alt_main.o) (alt_irq_init)
../RTOS_bsp/\libucosii_bsp.a(altera_avalon_jtag_uart_fd.o)
                              ../RTOS_bsp/\libucosii_bsp.a(alt_sys_init.o) (altera_avalon_jtag_uart_read_fd)
../RTOS_bsp/\libucosii_bsp.a(altera_avalon_jtag_uart_init.o)
                              ../RTOS_bsp/\libucosii_bsp.a(alt_sys_init.o) (altera_avalon_jtag_uart_init)
../RTOS_bsp/\libucosii_bsp.a(altera_avalon_jtag_uart_ioctl.o)
                              ../RTOS_bsp/\libucosii_bsp.a(altera_avalon_jtag_uart_fd.o) (altera_avalon_jtag_uart_ioctl)
../RTOS_bsp/\libucosii_bsp.a(altera_avalon_jtag_uart_read.o)
                              ../RTOS_bsp/\libucosii_bsp.a(altera_avalon_jtag_uart_fd.o) (altera_avalon_jtag_uart_read)
../RTOS_bsp/\libucosii_bsp.a(altera_avalon_jtag_uart_write.o)
                              ../RTOS_bsp/\libucosii_bsp.a(altera_avalon_jtag_uart_fd.o) (altera_avalon_jtag_uart_write)
../RTOS_bsp/\libucosii_bsp.a(altera_avalon_timer_sc.o)
                              ../RTOS_bsp/\libucosii_bsp.a(alt_sys_init.o) (alt_avalon_timer_sc_init)
../RTOS_bsp/\libucosii_bsp.a(altera_avalon_uart_fd.o)
                              ../RTOS_bsp/\libucosii_bsp.a(alt_sys_init.o) (altera_avalon_uart_read_fd)
../RTOS_bsp/\libucosii_bsp.a(altera_avalon_uart_init.o)
                              ../RTOS_bsp/\libucosii_bsp.a(alt_sys_init.o) (altera_avalon_uart_init)
../RTOS_bsp/\libucosii_bsp.a(altera_avalon_uart_read.o)
                              ../RTOS_bsp/\libucosii_bsp.a(altera_avalon_uart_fd.o) (altera_avalon_uart_read)
../RTOS_bsp/\libucosii_bsp.a(altera_avalon_uart_write.o)
                              ../RTOS_bsp/\libucosii_bsp.a(altera_avalon_uart_fd.o) (altera_avalon_uart_write)
../RTOS_bsp/\libucosii_bsp.a(alt_alarm_start.o)
                              ../RTOS_bsp/\libucosii_bsp.a(altera_avalon_jtag_uart_init.o) (alt_alarm_start)
../RTOS_bsp/\libucosii_bsp.a(alt_dcache_flush_all.o)
                              ../RTOS_bsp/\libucosii_bsp.a(alt_load.o) (alt_dcache_flush_all)
../RTOS_bsp/\libucosii_bsp.a(alt_dev_llist_insert.o)
                              ../RTOS_bsp/\libucosii_bsp.a(alt_sys_init.o) (alt_dev_llist_insert)
../RTOS_bsp/\libucosii_bsp.a(alt_do_ctors.o)
                              ../RTOS_bsp/\libucosii_bsp.a(alt_main.o) (_do_ctors)
../RTOS_bsp/\libucosii_bsp.a(alt_do_dtors.o)
                              ../RTOS_bsp/\libucosii_bsp.a(alt_main.o) (_do_dtors)
../RTOS_bsp/\libucosii_bsp.a(alt_icache_flush_all.o)
                              ../RTOS_bsp/\libucosii_bsp.a(alt_load.o) (alt_icache_flush_all)
../RTOS_bsp/\libucosii_bsp.a(alt_iic.o)
                              ../RTOS_bsp/\libucosii_bsp.a(altera_avalon_jtag_uart_init.o) (alt_ic_isr_register)
../RTOS_bsp/\libucosii_bsp.a(alt_iic_isr_register.o)
                              ../RTOS_bsp/\libucosii_bsp.a(alt_iic.o) (alt_iic_isr_register)
../RTOS_bsp/\libucosii_bsp.a(alt_io_redirect.o)
                              ../RTOS_bsp/\libucosii_bsp.a(alt_main.o) (alt_io_redirect)
../RTOS_bsp/\libucosii_bsp.a(alt_irq_entry.o)
                              ../RTOS_bsp/\libucosii_bsp.a(alt_iic_isr_register.o) (alt_irq_entry)
../RTOS_bsp/\libucosii_bsp.a(alt_irq_handler.o)
                              ../RTOS_bsp/\libucosii_bsp.a(alt_iic_isr_register.o) (alt_irq)
../RTOS_bsp/\libucosii_bsp.a(alt_irq_vars.o)
                              ../RTOS_bsp/\libucosii_bsp.a(alt_iic.o) (alt_irq_active)
../RTOS_bsp/\libucosii_bsp.a(alt_open.o)
                              ../RTOS_bsp/\libucosii_bsp.a(alt_io_redirect.o) (open)
../RTOS_bsp/\libucosii_bsp.a(alt_tick.o)
                              ../RTOS_bsp/\libucosii_bsp.a(altera_avalon_jtag_uart_init.o) (_alt_tick_rate)
../RTOS_bsp/\libucosii_bsp.a(altera_nios2_gen2_irq.o)
                              ../RTOS_bsp/\libucosii_bsp.a(alt_sys_init.o) (altera_nios2_gen2_irq_init)
../RTOS_bsp/\libucosii_bsp.a(os_cpu_a.o)
                              ../RTOS_bsp/\libucosii_bsp.a(os_core.o) (OSIntCtxSw)
../RTOS_bsp/\libucosii_bsp.a(os_cpu_c.o)
                              ../RTOS_bsp/\libucosii_bsp.a(os_task.o) (OSTaskStkInit)
../RTOS_bsp/\libucosii_bsp.a(alt_exception_entry.o)
                              ../RTOS_bsp/\libucosii_bsp.a(alt_irq_entry.o) (alt_exception)
../RTOS_bsp/\libucosii_bsp.a(alt_find_dev.o)
                              ../RTOS_bsp/\libucosii_bsp.a(alt_open.o) (alt_find_dev)
../RTOS_bsp/\libucosii_bsp.a(alt_find_file.o)
                              ../RTOS_bsp/\libucosii_bsp.a(alt_open.o) (alt_find_file)
../RTOS_bsp/\libucosii_bsp.a(alt_get_fd.o)
                              ../RTOS_bsp/\libucosii_bsp.a(alt_open.o) (alt_get_fd)
../RTOS_bsp/\libucosii_bsp.a(alt_icache_flush.o)
                              ../RTOS_bsp/\libucosii_bsp.a(alt_icache_flush_all.o) (alt_icache_flush)
../RTOS_bsp/\libucosii_bsp.a(alt_instruction_exception_entry.o)
                              ../RTOS_bsp/\libucosii_bsp.a(alt_exception_entry.o) (alt_instruction_exception_entry)
c:/intelfpga_lite/18.1/nios2eds/bin/gnu/h-x86_64-mingw32/bin/../lib/gcc/nios2-elf/5.3.0/../../../../../H-x86_64-mingw32/nios2-elf/lib\libc.a(lib_a-atexit.o)
                              ../RTOS_bsp/\libucosii_bsp.a(alt_main.o) (atexit)
c:/intelfpga_lite/18.1/nios2eds/bin/gnu/h-x86_64-mingw32/bin/../lib/gcc/nios2-elf/5.3.0/../../../../../H-x86_64-mingw32/nios2-elf/lib\libc.a(lib_a-exit.o)
                              ../RTOS_bsp/\libucosii_bsp.a(alt_main.o) (exit)
c:/intelfpga_lite/18.1/nios2eds/bin/gnu/h-x86_64-mingw32/bin/../lib/gcc/nios2-elf/5.3.0/../../../../../H-x86_64-mingw32/nios2-elf/lib\libc.a(lib_a-fputs.o)
                              ../RTOS_bsp/\libucosii_bsp.a(alt_putstr.o) (fputs)
c:/intelfpga_lite/18.1/nios2eds/bin/gnu/h-x86_64-mingw32/bin/../lib/gcc/nios2-elf/5.3.0/../../../../../H-x86_64-mingw32/nios2-elf/lib\libc.a(lib_a-memcmp.o)
                              ../RTOS_bsp/\libucosii_bsp.a(alt_find_dev.o) (memcmp)
c:/intelfpga_lite/18.1/nios2eds/bin/gnu/h-x86_64-mingw32/bin/../lib/gcc/nios2-elf/5.3.0/../../../../../H-x86_64-mingw32/nios2-elf/lib\libc.a(lib_a-putc.o)
                              ../RTOS_bsp/\libucosii_bsp.a(alt_putchar.o) (putc)
c:/intelfpga_lite/18.1/nios2eds/bin/gnu/h-x86_64-mingw32/bin/../lib/gcc/nios2-elf/5.3.0/../../../../../H-x86_64-mingw32/nios2-elf/lib\libc.a(lib_a-wbuf.o)
                              c:/intelfpga_lite/18.1/nios2eds/bin/gnu/h-x86_64-mingw32/bin/../lib/gcc/nios2-elf/5.3.0/../../../../../H-x86_64-mingw32/nios2-elf/lib\libc.a(lib_a-putc.o) (__swbuf_r)
c:/intelfpga_lite/18.1/nios2eds/bin/gnu/h-x86_64-mingw32/bin/../lib/gcc/nios2-elf/5.3.0/../../../../../H-x86_64-mingw32/nios2-elf/lib\libc.a(lib_a-__atexit.o)
                              c:/intelfpga_lite/18.1/nios2eds/bin/gnu/h-x86_64-mingw32/bin/../lib/gcc/nios2-elf/5.3.0/../../../../../H-x86_64-mingw32/nios2-elf/lib\libc.a(lib_a-atexit.o) (__register_exitproc)
c:/intelfpga_lite/18.1/nios2eds/bin/gnu/h-x86_64-mingw32/bin/../lib/gcc/nios2-elf/5.3.0/../../../../../H-x86_64-mingw32/nios2-elf/lib\libc.a(lib_a-__call_atexit.o)
                              c:/intelfpga_lite/18.1/nios2eds/bin/gnu/h-x86_64-mingw32/bin/../lib/gcc/nios2-elf/5.3.0/../../../../../H-x86_64-mingw32/nios2-elf/lib\libc.a(lib_a-exit.o) (__call_exitprocs)
../RTOS_bsp/\libucosii_bsp.a(alt_exit.o)
                              c:/intelfpga_lite/18.1/nios2eds/bin/gnu/h-x86_64-mingw32/bin/../lib/gcc/nios2-elf/5.3.0/../../../../../H-x86_64-mingw32/nios2-elf/lib\libc.a(lib_a-exit.o) (_exit)

Allocating common symbols
Common symbol       size              file

alt_irq             0x100             ../RTOS_bsp/\libucosii_bsp.a(alt_irq_handler.o)
task1_stk           0x1060            obj/default/hello_ucosii.o
OSLockNesting       0x1               ../RTOS_bsp/\libucosii_bsp.a(os_core.o)
OSRunning           0x1               ../RTOS_bsp/\libucosii_bsp.a(os_core.o)
OSIdleCtr           0x4               ../RTOS_bsp/\libucosii_bsp.a(os_core.o)
OSPrioHighRdy       0x1               ../RTOS_bsp/\libucosii_bsp.a(os_core.o)
errno               0x4               c:/intelfpga_lite/18.1/nios2eds/bin/gnu/h-x86_64-mingw32/bin/../lib/gcc/nios2-elf/5.3.0/../../../../../H-x86_64-mingw32/nios2-elf/lib\libc.a(lib_a-int_errno.o)
alt_heapsem         0x4               ../RTOS_bsp/\libucosii_bsp.a(alt_malloc_lock.o)
OSFlagTbl           0x370             ../RTOS_bsp/\libucosii_bsp.a(os_core.o)
OSPrioCur           0x1               ../RTOS_bsp/\libucosii_bsp.a(os_core.o)
OSTCBList           0x4               ../RTOS_bsp/\libucosii_bsp.a(os_core.o)
alt_fd_list_lock    0x4               ../RTOS_bsp/\libucosii_bsp.a(alt_dev.o)
OSMemTbl            0xc30             ../RTOS_bsp/\libucosii_bsp.a(os_core.o)
OSTickStepState     0x1               ../RTOS_bsp/\libucosii_bsp.a(os_core.o)
OSTaskStatStk       0x800             ../RTOS_bsp/\libucosii_bsp.a(os_core.o)
OSCtxSwCtr          0x4               ../RTOS_bsp/\libucosii_bsp.a(os_core.o)
OSIdleCtrMax        0x4               ../RTOS_bsp/\libucosii_bsp.a(os_core.o)
OSTCBFreeList       0x4               ../RTOS_bsp/\libucosii_bsp.a(os_core.o)
OSCPUUsage          0x1               ../RTOS_bsp/\libucosii_bsp.a(os_core.o)
OSTaskCtr           0x1               ../RTOS_bsp/\libucosii_bsp.a(os_core.o)
OSMemFreeList       0x4               ../RTOS_bsp/\libucosii_bsp.a(os_core.o)
OSQTbl              0x1e0             ../RTOS_bsp/\libucosii_bsp.a(os_core.o)
OSTCBHighRdy        0x4               ../RTOS_bsp/\libucosii_bsp.a(os_core.o)
OSQFreeList         0x4               ../RTOS_bsp/\libucosii_bsp.a(os_core.o)
OSRdyGrp            0x1               ../RTOS_bsp/\libucosii_bsp.a(os_core.o)
task2_stk           0x1060            obj/default/hello_ucosii.o
OSRdyTbl            0x3               ../RTOS_bsp/\libucosii_bsp.a(os_core.o)
OSEventFreeList     0x4               ../RTOS_bsp/\libucosii_bsp.a(os_core.o)
OSIntNesting        0x1               ../RTOS_bsp/\libucosii_bsp.a(os_core.o)
OSTCBCur            0x4               ../RTOS_bsp/\libucosii_bsp.a(os_core.o)
OSTime              0x4               ../RTOS_bsp/\libucosii_bsp.a(os_core.o)
OSTaskIdleStk       0x800             ../RTOS_bsp/\libucosii_bsp.a(os_core.o)
OSEventTbl          0xb40             ../RTOS_bsp/\libucosii_bsp.a(os_core.o)
OSTCBTbl            0x510             ../RTOS_bsp/\libucosii_bsp.a(os_core.o)
OSFlagFreeList      0x4               ../RTOS_bsp/\libucosii_bsp.a(os_core.o)
OSStatRdy           0x1               ../RTOS_bsp/\libucosii_bsp.a(os_core.o)
OSTCBPrioTbl        0x54              ../RTOS_bsp/\libucosii_bsp.a(os_core.o)
alt_envsem          0x4               ../RTOS_bsp/\libucosii_bsp.a(alt_env_lock.o)
OSIdleCtrRun        0x4               ../RTOS_bsp/\libucosii_bsp.a(os_core.o)

Memory Configuration

Name             Origin             Length             Attributes
reset            0x0000000000000000 0x0000000000000020
new_sdram_controller_0 0x0000000000000020 0x0000000003ffffe0
onchip_memory2_0 0x0000000004004000 0x0000000000004000
*default*        0x0000000000000000 0xffffffffffffffff

Linker script and memory map

LOAD ../RTOS_bsp//obj/HAL/src/crt0.o
LOAD obj/default/hello_ucosii.o
LOAD c:/intelfpga_lite/18.1/nios2eds/bin/gnu/h-x86_64-mingw32/bin/../lib/gcc/nios2-elf/5.3.0/../../../../../H-x86_64-mingw32/nios2-elf/lib\libstdc++.a
LOAD c:/intelfpga_lite/18.1/nios2eds/bin/gnu/h-x86_64-mingw32/bin/../lib/gcc/nios2-elf/5.3.0/../../../../../H-x86_64-mingw32/nios2-elf/lib\libm.a
LOAD c:/intelfpga_lite/18.1/nios2eds/bin/gnu/h-x86_64-mingw32/bin/../lib/gcc/nios2-elf/5.3.0\libgcc.a
START GROUP
LOAD c:/intelfpga_lite/18.1/nios2eds/bin/gnu/h-x86_64-mingw32/bin/../lib/gcc/nios2-elf/5.3.0/../../../../../H-x86_64-mingw32/nios2-elf/lib\libc.a
LOAD c:/intelfpga_lite/18.1/nios2eds/bin/gnu/h-x86_64-mingw32/bin/../lib/gcc/nios2-elf/5.3.0\libgcc.a
LOAD ../RTOS_bsp/\libucosii_bsp.a
LOAD c:/intelfpga_lite/18.1/nios2eds/bin/gnu/h-x86_64-mingw32/bin/../lib/gcc/nios2-elf/5.3.0/../../../../../H-x86_64-mingw32/nios2-elf/lib\libm.a
END GROUP
LOAD c:/intelfpga_lite/18.1/nios2eds/bin/gnu/h-x86_64-mingw32/bin/../lib/gcc/nios2-elf/5.3.0\libgcc.a
                0x0000000000000000                __alt_mem_new_sdram_controller_0 = 0x0
                0x0000000004004000                __alt_mem_onchip_memory2_0 = 0x4004000

.entry          0x0000000000000000       0x20
 *(.entry)
 .entry         0x0000000000000000       0x20 ../RTOS_bsp//obj/HAL/src/crt0.o
                0x0000000000000000                __reset

.exceptions     0x0000000000000020      0x224
                0x0000000000000020                PROVIDE (__ram_exceptions_start, ABSOLUTE (.))
                0x0000000000000020                . = ALIGN (0x20)
 *(.irq)
 *(.exceptions.entry.label)
 .exceptions.entry.label
                0x0000000000000020        0x0 ../RTOS_bsp/\libucosii_bsp.a(alt_irq_entry.o)
                0x0000000000000020                alt_irq_entry
 .exceptions.entry.label
                0x0000000000000020        0x0 ../RTOS_bsp/\libucosii_bsp.a(alt_exception_entry.o)
                0x0000000000000020                alt_exception
 *(.exceptions.entry.user)
 *(.exceptions.entry.ecc_fatal)
 *(.exceptions.entry)
 .exceptions.entry
                0x0000000000000020       0x54 ../RTOS_bsp/\libucosii_bsp.a(alt_exception_entry.o)
 *(.exceptions.irqtest.user)
 *(.exceptions.irqtest)
 .exceptions.irqtest
                0x0000000000000074       0x10 ../RTOS_bsp/\libucosii_bsp.a(alt_irq_entry.o)
 *(.exceptions.irqhandler.user)
 *(.exceptions.irqhandler)
 .exceptions.irqhandler
                0x0000000000000084        0x4 ../RTOS_bsp/\libucosii_bsp.a(alt_irq_entry.o)
 *(.exceptions.irqreturn.user)
 *(.exceptions.irqreturn)
 .exceptions.irqreturn
                0x0000000000000088        0x4 ../RTOS_bsp/\libucosii_bsp.a(alt_irq_entry.o)
 *(.exceptions.notirq.label)
 .exceptions.notirq.label
                0x000000000000008c        0x0 ../RTOS_bsp/\libucosii_bsp.a(alt_irq_entry.o)
 *(.exceptions.notirq.user)
 *(.exceptions.notirq)
 .exceptions.notirq
                0x000000000000008c        0x8 ../RTOS_bsp/\libucosii_bsp.a(alt_exception_entry.o)
 *(.exceptions.soft.user)
 *(.exceptions.soft)
 *(.exceptions.unknown.user)
 *(.exceptions.unknown)
 .exceptions.unknown
                0x0000000000000094       0x14 ../RTOS_bsp/\libucosii_bsp.a(alt_exception_entry.o)
 *(.exceptions.exit.label)
 .exceptions.exit.label
                0x00000000000000a8        0x0 ../RTOS_bsp/\libucosii_bsp.a(alt_irq_entry.o)
 .exceptions.exit.label
                0x00000000000000a8        0x0 ../RTOS_bsp/\libucosii_bsp.a(alt_exception_entry.o)
 *(.exceptions.exit.user)
 *(.exceptions.exit)
 .exceptions.exit
                0x00000000000000a8       0x54 ../RTOS_bsp/\libucosii_bsp.a(alt_exception_entry.o)
 *(.exceptions)
 .exceptions    0x00000000000000fc       0xd4 ../RTOS_bsp/\libucosii_bsp.a(alt_irq_handler.o)
                0x00000000000000fc                alt_irq_handler
 .exceptions    0x00000000000001d0       0x74 ../RTOS_bsp/\libucosii_bsp.a(alt_instruction_exception_entry.o)
                0x00000000000001d0                alt_instruction_exception_entry
                0x0000000000000244                PROVIDE (__ram_exceptions_end, ABSOLUTE (.))
                0x0000000000000020                PROVIDE (__flash_exceptions_start, LOADADDR (.exceptions))

.text           0x0000000000000244     0xe968
                [!provide]                        PROVIDE (stext, ABSOLUTE (.))
 *(.interp)
 *(.hash)
 *(.dynsym)
 *(.dynstr)
 *(.gnu.version)
 *(.gnu.version_d)
 *(.gnu.version_r)
 *(.rel.init)
 *(.rela.init)
 *(.rel.text .rel.text.* .rel.gnu.linkonce.t.*)
 *(.rela.text .rela.text.* .rela.gnu.linkonce.t.*)
 *(.rel.fini)
 *(.rela.fini)
 *(.rel.rodata .rel.rodata.* .rel.gnu.linkonce.r.*)
 *(.rela.rodata .rela.rodata.* .rela.gnu.linkonce.r.*)
 *(.rel.data .rel.data.* .rel.gnu.linkonce.d.*)
 *(.rela.data .rela.data.* .rela.gnu.linkonce.d.*)
 *(.rel.tdata .rel.tdata.* .rel.gnu.linkonce.td.*)
 *(.rela.tdata .rela.tdata.* .rela.gnu.linkonce.td.*)
 *(.rel.tbss .rel.tbss.* .rel.gnu.linkonce.tb.*)
 *(.rela.tbss .rela.tbss.* .rela.gnu.linkonce.tb.*)
 *(.rel.ctors)
 *(.rela.ctors)
 *(.rel.dtors)
 *(.rela.dtors)
 *(.rel.got)
 *(.rela.got)
 *(.rel.sdata .rel.sdata.* .rel.gnu.linkonce.s.*)
 *(.rela.sdata .rela.sdata.* .rela.gnu.linkonce.s.*)
 *(.rel.sbss .rel.sbss.* .rel.gnu.linkonce.sb.*)
 *(.rela.sbss .rela.sbss.* .rela.gnu.linkonce.sb.*)
 *(.rel.sdata2 .rel.sdata2.* .rel.gnu.linkonce.s2.*)
 *(.rela.sdata2 .rela.sdata2.* .rela.gnu.linkonce.s2.*)
 *(.rel.sbss2 .rel.sbss2.* .rel.gnu.linkonce.sb2.*)
 *(.rela.sbss2 .rela.sbss2.* .rela.gnu.linkonce.sb2.*)
 *(.rel.bss .rel.bss.* .rel.gnu.linkonce.b.*)
 *(.rela.bss .rela.bss.* .rela.gnu.linkonce.b.*)
 *(.rel.plt)
 *(.rela.plt)
 *(.rel.dyn)
 *(.init)
 *(.plt)
 *(.text .stub .text.* .gnu.linkonce.t.*)
 .text          0x0000000000000244       0x4c ../RTOS_bsp//obj/HAL/src/crt0.o
                0x0000000000000244                _start
 .text          0x0000000000000290      0x324 obj/default/hello_ucosii.o
                0x0000000000000290                task1
                0x0000000000000324                task2
                0x000000000000046c                main
 .text          0x00000000000005b4      0x1b4 c:/intelfpga_lite/18.1/nios2eds/bin/gnu/h-x86_64-mingw32/bin/../lib/gcc/nios2-elf/5.3.0\libgcc.a(lib2-divmod.o)
                0x00000000000005b4                __divsi3
                0x0000000000000638                __modsi3
                0x00000000000006ac                __udivsi3
                0x0000000000000710                __umodsi3
 .text          0x0000000000000768        0x0 c:/intelfpga_lite/18.1/nios2eds/bin/gnu/h-x86_64-mingw32/bin/../lib/gcc/nios2-elf/5.3.0/../../../../../H-x86_64-mingw32/nios2-elf/lib\libc.a(lib_a-puts.o)
 .text._puts_r  0x0000000000000768       0xc0 c:/intelfpga_lite/18.1/nios2eds/bin/gnu/h-x86_64-mingw32/bin/../lib/gcc/nios2-elf/5.3.0/../../../../../H-x86_64-mingw32/nios2-elf/lib\libc.a(lib_a-puts.o)
                0x0000000000000768                _puts_r
 .text.puts     0x0000000000000828       0x14 c:/intelfpga_lite/18.1/nios2eds/bin/gnu/h-x86_64-mingw32/bin/../lib/gcc/nios2-elf/5.3.0/../../../../../H-x86_64-mingw32/nios2-elf/lib\libc.a(lib_a-puts.o)
                0x0000000000000828                puts
 .text          0x000000000000083c        0x0 c:/intelfpga_lite/18.1/nios2eds/bin/gnu/h-x86_64-mingw32/bin/../lib/gcc/nios2-elf/5.3.0/../../../../../H-x86_64-mingw32/nios2-elf/lib\libc.a(lib_a-strlen.o)
 .text.strlen   0x000000000000083c       0x98 c:/intelfpga_lite/18.1/nios2eds/bin/gnu/h-x86_64-mingw32/bin/../lib/gcc/nios2-elf/5.3.0/../../../../../H-x86_64-mingw32/nios2-elf/lib\libc.a(lib_a-strlen.o)
                0x000000000000083c                strlen
 .text          0x00000000000008d4        0x0 c:/intelfpga_lite/18.1/nios2eds/bin/gnu/h-x86_64-mingw32/bin/../lib/gcc/nios2-elf/5.3.0/../../../../../H-x86_64-mingw32/nios2-elf/lib\libc.a(lib_a-findfp.o)
 .text.__fp_unlock
                0x00000000000008d4        0x8 c:/intelfpga_lite/18.1/nios2eds/bin/gnu/h-x86_64-mingw32/bin/../lib/gcc/nios2-elf/5.3.0/../../../../../H-x86_64-mingw32/nios2-elf/lib\libc.a(lib_a-findfp.o)
 .text._cleanup_r
                0x00000000000008dc        0xc c:/intelfpga_lite/18.1/nios2eds/bin/gnu/h-x86_64-mingw32/bin/../lib/gcc/nios2-elf/5.3.0/../../../../../H-x86_64-mingw32/nios2-elf/lib\libc.a(lib_a-findfp.o)
                0x00000000000008dc                _cleanup_r
 .text.__sinit.part.1
                0x00000000000008e8      0x19c c:/intelfpga_lite/18.1/nios2eds/bin/gnu/h-x86_64-mingw32/bin/../lib/gcc/nios2-elf/5.3.0/../../../../../H-x86_64-mingw32/nios2-elf/lib\libc.a(lib_a-findfp.o)
 .text.__fp_lock
                0x0000000000000a84        0x8 c:/intelfpga_lite/18.1/nios2eds/bin/gnu/h-x86_64-mingw32/bin/../lib/gcc/nios2-elf/5.3.0/../../../../../H-x86_64-mingw32/nios2-elf/lib\libc.a(lib_a-findfp.o)
 .text.__sfmoreglue
                0x0000000000000a8c       0x68 c:/intelfpga_lite/18.1/nios2eds/bin/gnu/h-x86_64-mingw32/bin/../lib/gcc/nios2-elf/5.3.0/../../../../../H-x86_64-mingw32/nios2-elf/lib\libc.a(lib_a-findfp.o)
                0x0000000000000a8c                __sfmoreglue
 .text.__sfp    0x0000000000000af4      0x118 c:/intelfpga_lite/18.1/nios2eds/bin/gnu/h-x86_64-mingw32/bin/../lib/gcc/nios2-elf/5.3.0/../../../../../H-x86_64-mingw32/nios2-elf/lib\libc.a(lib_a-findfp.o)
                0x0000000000000af4                __sfp
 .text._cleanup
                0x0000000000000c0c       0x18 c:/intelfpga_lite/18.1/nios2eds/bin/gnu/h-x86_64-mingw32/bin/../lib/gcc/nios2-elf/5.3.0/../../../../../H-x86_64-mingw32/nios2-elf/lib\libc.a(lib_a-findfp.o)
                0x0000000000000c0c                _cleanup
 .text.__sinit  0x0000000000000c24       0x10 c:/intelfpga_lite/18.1/nios2eds/bin/gnu/h-x86_64-mingw32/bin/../lib/gcc/nios2-elf/5.3.0/../../../../../H-x86_64-mingw32/nios2-elf/lib\libc.a(lib_a-findfp.o)
                0x0000000000000c24                __sinit
 .text.__sfp_lock_acquire
                0x0000000000000c34        0x4 c:/intelfpga_lite/18.1/nios2eds/bin/gnu/h-x86_64-mingw32/bin/../lib/gcc/nios2-elf/5.3.0/../../../../../H-x86_64-mingw32/nios2-elf/lib\libc.a(lib_a-findfp.o)
                0x0000000000000c34                __sfp_lock_acquire
 .text.__sfp_lock_release
                0x0000000000000c38        0x4 c:/intelfpga_lite/18.1/nios2eds/bin/gnu/h-x86_64-mingw32/bin/../lib/gcc/nios2-elf/5.3.0/../../../../../H-x86_64-mingw32/nios2-elf/lib\libc.a(lib_a-findfp.o)
                0x0000000000000c38                __sfp_lock_release
 .text.__sinit_lock_acquire
                0x0000000000000c3c        0x4 c:/intelfpga_lite/18.1/nios2eds/bin/gnu/h-x86_64-mingw32/bin/../lib/gcc/nios2-elf/5.3.0/../../../../../H-x86_64-mingw32/nios2-elf/lib\libc.a(lib_a-findfp.o)
                0x0000000000000c3c                __sinit_lock_acquire
 .text.__sinit_lock_release
                0x0000000000000c40        0x4 c:/intelfpga_lite/18.1/nios2eds/bin/gnu/h-x86_64-mingw32/bin/../lib/gcc/nios2-elf/5.3.0/../../../../../H-x86_64-mingw32/nios2-elf/lib\libc.a(lib_a-findfp.o)
                0x0000000000000c40                __sinit_lock_release
 .text.__fp_lock_all
                0x0000000000000c44       0x18 c:/intelfpga_lite/18.1/nios2eds/bin/gnu/h-x86_64-mingw32/bin/../lib/gcc/nios2-elf/5.3.0/../../../../../H-x86_64-mingw32/nios2-elf/lib\libc.a(lib_a-findfp.o)
                0x0000000000000c44                __fp_lock_all
 .text.__fp_unlock_all
                0x0000000000000c5c       0x18 c:/intelfpga_lite/18.1/nios2eds/bin/gnu/h-x86_64-mingw32/bin/../lib/gcc/nios2-elf/5.3.0/../../../../../H-x86_64-mingw32/nios2-elf/lib\libc.a(lib_a-findfp.o)
                0x0000000000000c5c                __fp_unlock_all
 .text          0x0000000000000c74        0x0 c:/intelfpga_lite/18.1/nios2eds/bin/gnu/h-x86_64-mingw32/bin/../lib/gcc/nios2-elf/5.3.0/../../../../../H-x86_64-mingw32/nios2-elf/lib\libc.a(lib_a-fvwrite.o)
 .text.__sfvwrite_r
                0x0000000000000c74      0x4bc c:/intelfpga_lite/18.1/nios2eds/bin/gnu/h-x86_64-mingw32/bin/../lib/gcc/nios2-elf/5.3.0/../../../../../H-x86_64-mingw32/nios2-elf/lib\libc.a(lib_a-fvwrite.o)
                0x0000000000000c74                __sfvwrite_r
 .text          0x0000000000001130        0x0 c:/intelfpga_lite/18.1/nios2eds/bin/gnu/h-x86_64-mingw32/bin/../lib/gcc/nios2-elf/5.3.0/../../../../../H-x86_64-mingw32/nios2-elf/lib\libc.a(lib_a-fwalk.o)
 .text._fwalk   0x0000000000001130       0xc4 c:/intelfpga_lite/18.1/nios2eds/bin/gnu/h-x86_64-mingw32/bin/../lib/gcc/nios2-elf/5.3.0/../../../../../H-x86_64-mingw32/nios2-elf/lib\libc.a(lib_a-fwalk.o)
                0x0000000000001130                _fwalk
 .text._fwalk_reent
                0x00000000000011f4       0xc4 c:/intelfpga_lite/18.1/nios2eds/bin/gnu/h-x86_64-mingw32/bin/../lib/gcc/nios2-elf/5.3.0/../../../../../H-x86_64-mingw32/nios2-elf/lib\libc.a(lib_a-fwalk.o)
                0x00000000000011f4                _fwalk_reent
 .text          0x00000000000012b8        0x0 c:/intelfpga_lite/18.1/nios2eds/bin/gnu/h-x86_64-mingw32/bin/../lib/gcc/nios2-elf/5.3.0/../../../../../H-x86_64-mingw32/nios2-elf/lib\libc.a(lib_a-impure.o)
 .text          0x00000000000012b8        0x0 c:/intelfpga_lite/18.1/nios2eds/bin/gnu/h-x86_64-mingw32/bin/../lib/gcc/nios2-elf/5.3.0/../../../../../H-x86_64-mingw32/nios2-elf/lib\libc.a(lib_a-mallocr.o)
 .text._malloc_r
                0x00000000000012b8      0x80c c:/intelfpga_lite/18.1/nios2eds/bin/gnu/h-x86_64-mingw32/bin/../lib/gcc/nios2-elf/5.3.0/../../../../../H-x86_64-mingw32/nios2-elf/lib\libc.a(lib_a-mallocr.o)
                0x00000000000012b8                _malloc_r
 .text          0x0000000000001ac4        0x0 c:/intelfpga_lite/18.1/nios2eds/bin/gnu/h-x86_64-mingw32/bin/../lib/gcc/nios2-elf/5.3.0/../../../../../H-x86_64-mingw32/nios2-elf/lib\libc.a(lib_a-memchr.o)
 .text.memchr   0x0000000000001ac4       0xe4 c:/intelfpga_lite/18.1/nios2eds/bin/gnu/h-x86_64-mingw32/bin/../lib/gcc/nios2-elf/5.3.0/../../../../../H-x86_64-mingw32/nios2-elf/lib\libc.a(lib_a-memchr.o)
                0x0000000000001ac4                memchr
 .text          0x0000000000001ba8        0x0 c:/intelfpga_lite/18.1/nios2eds/bin/gnu/h-x86_64-mingw32/bin/../lib/gcc/nios2-elf/5.3.0/../../../../../H-x86_64-mingw32/nios2-elf/lib\libc.a(lib_a-memcpy.o)
 .text.memcpy   0x0000000000001ba8      0x148 c:/intelfpga_lite/18.1/nios2eds/bin/gnu/h-x86_64-mingw32/bin/../lib/gcc/nios2-elf/5.3.0/../../../../../H-x86_64-mingw32/nios2-elf/lib\libc.a(lib_a-memcpy.o)
                0x0000000000001ba8                memcpy
 .text          0x0000000000001cf0        0x0 c:/intelfpga_lite/18.1/nios2eds/bin/gnu/h-x86_64-mingw32/bin/../lib/gcc/nios2-elf/5.3.0/../../../../../H-x86_64-mingw32/nios2-elf/lib\libc.a(lib_a-memmove.o)
 .text.memmove  0x0000000000001cf0      0x15c c:/intelfpga_lite/18.1/nios2eds/bin/gnu/h-x86_64-mingw32/bin/../lib/gcc/nios2-elf/5.3.0/../../../../../H-x86_64-mingw32/nios2-elf/lib\libc.a(lib_a-memmove.o)
                0x0000000000001cf0                memmove
 .text          0x0000000000001e4c        0x0 c:/intelfpga_lite/18.1/nios2eds/bin/gnu/h-x86_64-mingw32/bin/../lib/gcc/nios2-elf/5.3.0/../../../../../H-x86_64-mingw32/nios2-elf/lib\libc.a(lib_a-memset.o)
 .text.memset   0x0000000000001e4c      0x128 c:/intelfpga_lite/18.1/nios2eds/bin/gnu/h-x86_64-mingw32/bin/../lib/gcc/nios2-elf/5.3.0/../../../../../H-x86_64-mingw32/nios2-elf/lib\libc.a(lib_a-memset.o)
                0x0000000000001e4c                memset
 .text          0x0000000000001f74        0x0 c:/intelfpga_lite/18.1/nios2eds/bin/gnu/h-x86_64-mingw32/bin/../lib/gcc/nios2-elf/5.3.0/../../../../../H-x86_64-mingw32/nios2-elf/lib\libc.a(lib_a-reallocr.o)
 .text._realloc_r
                0x0000000000001f74      0x564 c:/intelfpga_lite/18.1/nios2eds/bin/gnu/h-x86_64-mingw32/bin/../lib/gcc/nios2-elf/5.3.0/../../../../../H-x86_64-mingw32/nios2-elf/lib\libc.a(lib_a-reallocr.o)
                0x0000000000001f74                _realloc_r
 .text          0x00000000000024d8        0x0 c:/intelfpga_lite/18.1/nios2eds/bin/gnu/h-x86_64-mingw32/bin/../lib/gcc/nios2-elf/5.3.0/../../../../../H-x86_64-mingw32/nios2-elf/lib\libc.a(lib_a-sbrkr.o)
 .text._sbrk_r  0x00000000000024d8       0x54 c:/intelfpga_lite/18.1/nios2eds/bin/gnu/h-x86_64-mingw32/bin/../lib/gcc/nios2-elf/5.3.0/../../../../../H-x86_64-mingw32/nios2-elf/lib\libc.a(lib_a-sbrkr.o)
                0x00000000000024d8                _sbrk_r
 .text          0x000000000000252c        0x0 c:/intelfpga_lite/18.1/nios2eds/bin/gnu/h-x86_64-mingw32/bin/../lib/gcc/nios2-elf/5.3.0/../../../../../H-x86_64-mingw32/nios2-elf/lib\libc.a(lib_a-stdio.o)
 .text.__sread  0x000000000000252c       0x54 c:/intelfpga_lite/18.1/nios2eds/bin/gnu/h-x86_64-mingw32/bin/../lib/gcc/nios2-elf/5.3.0/../../../../../H-x86_64-mingw32/nios2-elf/lib\libc.a(lib_a-stdio.o)
                0x000000000000252c                __sread
 .text.__seofread
                0x0000000000002580        0x8 c:/intelfpga_lite/18.1/nios2eds/bin/gnu/h-x86_64-mingw32/bin/../lib/gcc/nios2-elf/5.3.0/../../../../../H-x86_64-mingw32/nios2-elf/lib\libc.a(lib_a-stdio.o)
                0x0000000000002580                __seofread
 .text.__swrite
                0x0000000000002588       0x7c c:/intelfpga_lite/18.1/nios2eds/bin/gnu/h-x86_64-mingw32/bin/../lib/gcc/nios2-elf/5.3.0/../../../../../H-x86_64-mingw32/nios2-elf/lib\libc.a(lib_a-stdio.o)
                0x0000000000002588                __swrite
 .text.__sseek  0x0000000000002604       0x5c c:/intelfpga_lite/18.1/nios2eds/bin/gnu/h-x86_64-mingw32/bin/../lib/gcc/nios2-elf/5.3.0/../../../../../H-x86_64-mingw32/nios2-elf/lib\libc.a(lib_a-stdio.o)
                0x0000000000002604                __sseek
 .text.__sclose
                0x0000000000002660        0x8 c:/intelfpga_lite/18.1/nios2eds/bin/gnu/h-x86_64-mingw32/bin/../lib/gcc/nios2-elf/5.3.0/../../../../../H-x86_64-mingw32/nios2-elf/lib\libc.a(lib_a-stdio.o)
                0x0000000000002660                __sclose
 .text          0x0000000000002668        0x0 c:/intelfpga_lite/18.1/nios2eds/bin/gnu/h-x86_64-mingw32/bin/../lib/gcc/nios2-elf/5.3.0/../../../../../H-x86_64-mingw32/nios2-elf/lib\libc.a(lib_a-writer.o)
 .text._write_r
                0x0000000000002668       0x60 c:/intelfpga_lite/18.1/nios2eds/bin/gnu/h-x86_64-mingw32/bin/../lib/gcc/nios2-elf/5.3.0/../../../../../H-x86_64-mingw32/nios2-elf/lib\libc.a(lib_a-writer.o)
                0x0000000000002668                _write_r
 .text          0x00000000000026c8        0x0 c:/intelfpga_lite/18.1/nios2eds/bin/gnu/h-x86_64-mingw32/bin/../lib/gcc/nios2-elf/5.3.0/../../../../../H-x86_64-mingw32/nios2-elf/lib\libc.a(lib_a-wsetup.o)
 .text.__swsetup_r
                0x00000000000026c8      0x154 c:/intelfpga_lite/18.1/nios2eds/bin/gnu/h-x86_64-mingw32/bin/../lib/gcc/nios2-elf/5.3.0/../../../../../H-x86_64-mingw32/nios2-elf/lib\libc.a(lib_a-wsetup.o)
                0x00000000000026c8                __swsetup_r
 .text          0x000000000000281c        0x0 c:/intelfpga_lite/18.1/nios2eds/bin/gnu/h-x86_64-mingw32/bin/../lib/gcc/nios2-elf/5.3.0/../../../../../H-x86_64-mingw32/nios2-elf/lib\libc.a(closer.o)
 .text._close_r
                0x000000000000281c       0x54 c:/intelfpga_lite/18.1/nios2eds/bin/gnu/h-x86_64-mingw32/bin/../lib/gcc/nios2-elf/5.3.0/../../../../../H-x86_64-mingw32/nios2-elf/lib\libc.a(closer.o)
                0x000000000000281c                _close_r
 .text          0x0000000000002870        0x0 c:/intelfpga_lite/18.1/nios2eds/bin/gnu/h-x86_64-mingw32/bin/../lib/gcc/nios2-elf/5.3.0/../../../../../H-x86_64-mingw32/nios2-elf/lib\libc.a(lib_a-fclose.o)
 .text._fclose_r
                0x0000000000002870       0xf0 c:/intelfpga_lite/18.1/nios2eds/bin/gnu/h-x86_64-mingw32/bin/../lib/gcc/nios2-elf/5.3.0/../../../../../H-x86_64-mingw32/nios2-elf/lib\libc.a(lib_a-fclose.o)
                0x0000000000002870                _fclose_r
 .text.fclose   0x0000000000002960       0x14 c:/intelfpga_lite/18.1/nios2eds/bin/gnu/h-x86_64-mingw32/bin/../lib/gcc/nios2-elf/5.3.0/../../../../../H-x86_64-mingw32/nios2-elf/lib\libc.a(lib_a-fclose.o)
                0x0000000000002960                fclose
 .text          0x0000000000002974        0x0 c:/intelfpga_lite/18.1/nios2eds/bin/gnu/h-x86_64-mingw32/bin/../lib/gcc/nios2-elf/5.3.0/../../../../../H-x86_64-mingw32/nios2-elf/lib\libc.a(lib_a-fflush.o)
 .text.__sflush_r
                0x0000000000002974      0x21c c:/intelfpga_lite/18.1/nios2eds/bin/gnu/h-x86_64-mingw32/bin/../lib/gcc/nios2-elf/5.3.0/../../../../../H-x86_64-mingw32/nios2-elf/lib\libc.a(lib_a-fflush.o)
                0x0000000000002974                __sflush_r
 .text._fflush_r
                0x0000000000002b90       0x5c c:/intelfpga_lite/18.1/nios2eds/bin/gnu/h-x86_64-mingw32/bin/../lib/gcc/nios2-elf/5.3.0/../../../../../H-x86_64-mingw32/nios2-elf/lib\libc.a(lib_a-fflush.o)
                0x0000000000002b90                _fflush_r
 .text.fflush   0x0000000000002bec       0x30 c:/intelfpga_lite/18.1/nios2eds/bin/gnu/h-x86_64-mingw32/bin/../lib/gcc/nios2-elf/5.3.0/../../../../../H-x86_64-mingw32/nios2-elf/lib\libc.a(lib_a-fflush.o)
                0x0000000000002bec                fflush
 .text          0x0000000000002c1c        0x0 c:/intelfpga_lite/18.1/nios2eds/bin/gnu/h-x86_64-mingw32/bin/../lib/gcc/nios2-elf/5.3.0/../../../../../H-x86_64-mingw32/nios2-elf/lib\libc.a(lib_a-freer.o)
 .text._malloc_trim_r
                0x0000000000002c1c      0x124 c:/intelfpga_lite/18.1/nios2eds/bin/gnu/h-x86_64-mingw32/bin/../lib/gcc/nios2-elf/5.3.0/../../../../../H-x86_64-mingw32/nios2-elf/lib\libc.a(lib_a-freer.o)
                0x0000000000002c1c                _malloc_trim_r
 .text._free_r  0x0000000000002d40      0x310 c:/intelfpga_lite/18.1/nios2eds/bin/gnu/h-x86_64-mingw32/bin/../lib/gcc/nios2-elf/5.3.0/../../../../../H-x86_64-mingw32/nios2-elf/lib\libc.a(lib_a-freer.o)
                0x0000000000002d40                _free_r
 .text          0x0000000000003050        0x0 c:/intelfpga_lite/18.1/nios2eds/bin/gnu/h-x86_64-mingw32/bin/../lib/gcc/nios2-elf/5.3.0/../../../../../H-x86_64-mingw32/nios2-elf/lib\libc.a(lib_a-int_errno.o)
 .text          0x0000000000003050        0x0 c:/intelfpga_lite/18.1/nios2eds/bin/gnu/h-x86_64-mingw32/bin/../lib/gcc/nios2-elf/5.3.0/../../../../../H-x86_64-mingw32/nios2-elf/lib\libc.a(lib_a-lseekr.o)
 .text._lseek_r
                0x0000000000003050       0x60 c:/intelfpga_lite/18.1/nios2eds/bin/gnu/h-x86_64-mingw32/bin/../lib/gcc/nios2-elf/5.3.0/../../../../../H-x86_64-mingw32/nios2-elf/lib\libc.a(lib_a-lseekr.o)
                0x0000000000003050                _lseek_r
 .text          0x00000000000030b0        0x0 c:/intelfpga_lite/18.1/nios2eds/bin/gnu/h-x86_64-mingw32/bin/../lib/gcc/nios2-elf/5.3.0/../../../../../H-x86_64-mingw32/nios2-elf/lib\libc.a(lib_a-makebuf.o)
 .text.__smakebuf_r
                0x00000000000030b0      0x1bc c:/intelfpga_lite/18.1/nios2eds/bin/gnu/h-x86_64-mingw32/bin/../lib/gcc/nios2-elf/5.3.0/../../../../../H-x86_64-mingw32/nios2-elf/lib\libc.a(lib_a-makebuf.o)
                0x00000000000030b0                __smakebuf_r
 .text          0x000000000000326c        0x0 c:/intelfpga_lite/18.1/nios2eds/bin/gnu/h-x86_64-mingw32/bin/../lib/gcc/nios2-elf/5.3.0/../../../../../H-x86_64-mingw32/nios2-elf/lib\libc.a(lib_a-readr.o)
 .text._read_r  0x000000000000326c       0x60 c:/intelfpga_lite/18.1/nios2eds/bin/gnu/h-x86_64-mingw32/bin/../lib/gcc/nios2-elf/5.3.0/../../../../../H-x86_64-mingw32/nios2-elf/lib\libc.a(lib_a-readr.o)
                0x000000000000326c                _read_r
 .text          0x00000000000032cc        0x0 c:/intelfpga_lite/18.1/nios2eds/bin/gnu/h-x86_64-mingw32/bin/../lib/gcc/nios2-elf/5.3.0/../../../../../H-x86_64-mingw32/nios2-elf/lib\libc.a(lib_a-fstatr.o)
 .text._fstat_r
                0x00000000000032cc       0x5c c:/intelfpga_lite/18.1/nios2eds/bin/gnu/h-x86_64-mingw32/bin/../lib/gcc/nios2-elf/5.3.0/../../../../../H-x86_64-mingw32/nios2-elf/lib\libc.a(lib_a-fstatr.o)
                0x00000000000032cc                _fstat_r
 .text          0x0000000000003328        0x0 c:/intelfpga_lite/18.1/nios2eds/bin/gnu/h-x86_64-mingw32/bin/../lib/gcc/nios2-elf/5.3.0/../../../../../H-x86_64-mingw32/nios2-elf/lib\libc.a(lib_a-isattyr.o)
 .text._isatty_r
                0x0000000000003328       0x54 c:/intelfpga_lite/18.1/nios2eds/bin/gnu/h-x86_64-mingw32/bin/../lib/gcc/nios2-elf/5.3.0/../../../../../H-x86_64-mingw32/nios2-elf/lib\libc.a(lib_a-isattyr.o)
                0x0000000000003328                _isatty_r
 .text          0x000000000000337c      0x10c ../RTOS_bsp/\libucosii_bsp.a(alt_close.o)
                0x00000000000033b8                close
 .text          0x0000000000003488       0x2c ../RTOS_bsp/\libucosii_bsp.a(alt_dev.o)
 .text          0x00000000000034b4        0x0 ../RTOS_bsp/\libucosii_bsp.a(alt_errno.o)
 .text          0x00000000000034b4       0xec ../RTOS_bsp/\libucosii_bsp.a(alt_fstat.o)
                0x00000000000034f0                fstat
 .text          0x00000000000035a0       0xe0 ../RTOS_bsp/\libucosii_bsp.a(alt_isatty.o)
                0x00000000000035dc                isatty
 .text          0x0000000000003680       0xec ../RTOS_bsp/\libucosii_bsp.a(alt_load.o)
                0x00000000000036e8                alt_load
 .text          0x000000000000376c      0x110 ../RTOS_bsp/\libucosii_bsp.a(alt_lseek.o)
                0x00000000000037a8                lseek
 .text          0x000000000000387c       0xbc ../RTOS_bsp/\libucosii_bsp.a(alt_main.o)
                0x000000000000387c                alt_main
 .text          0x0000000000003938       0x3c ../RTOS_bsp/\libucosii_bsp.a(alt_putchar.o)
                0x0000000000003938                alt_putchar
 .text          0x0000000000003974       0x3c ../RTOS_bsp/\libucosii_bsp.a(alt_putstr.o)
                0x0000000000003974                alt_putstr
 .text          0x00000000000039b0      0x138 ../RTOS_bsp/\libucosii_bsp.a(alt_read.o)
                0x00000000000039ec                read
 .text          0x0000000000003ae8       0x64 ../RTOS_bsp/\libucosii_bsp.a(alt_release_fd.o)
                0x0000000000003ae8                alt_release_fd
 .text          0x0000000000003b4c       0xb0 ../RTOS_bsp/\libucosii_bsp.a(alt_sbrk.o)
                0x0000000000003b4c                sbrk
 .text          0x0000000000003bfc      0x134 ../RTOS_bsp/\libucosii_bsp.a(alt_write.o)
                0x0000000000003c38                write
 .text          0x0000000000003d30      0x124 ../RTOS_bsp/\libucosii_bsp.a(alt_env_lock.o)
                0x0000000000003d30                __env_lock
                0x0000000000003df4                __env_unlock
 .text          0x0000000000003e54      0x1ec ../RTOS_bsp/\libucosii_bsp.a(alt_malloc_lock.o)
                0x0000000000003e54                __malloc_lock
                0x0000000000003f74                __malloc_unlock
 .text          0x0000000000004040     0x2014 ../RTOS_bsp/\libucosii_bsp.a(os_core.o)
                0x0000000000004040                OSEventNameGet
                0x0000000000004160                OSEventNameSet
                0x00000000000042a0                OSEventPendMulti
                0x00000000000048b0                OSInit
                0x0000000000004908                OSIntEnter
                0x0000000000004954                OSIntExit
                0x0000000000004a4c                OSSchedLock
                0x0000000000004ad8                OSSchedUnlock
                0x0000000000004bb4                OSStart
                0x0000000000004c24                OSStatInit
                0x0000000000004cd4                OSTimeTick
                0x0000000000004ef4                OSVersion
                0x0000000000004f14                OS_Dummy
                0x0000000000004f34                OS_EventTaskRdy
                0x00000000000050cc                OS_EventTaskWait
                0x00000000000051dc                OS_EventTaskWaitMulti
                0x000000000000532c                OS_EventTaskRemove
                0x00000000000053e4                OS_EventTaskRemoveMulti
                0x00000000000054e4                OS_EventWaitListInit
                0x00000000000058c4                OS_MemClr
                0x0000000000005918                OS_MemCopy
                0x0000000000005980                OS_Sched
                0x0000000000005ac4                OS_StrCopy
                0x0000000000005b38                OS_StrLen
                0x0000000000005b8c                OS_TaskIdle
                0x0000000000005be8                OS_TaskStat
                0x0000000000005cb4                OS_TaskStatStkChk
                0x0000000000005d80                OS_TCBInit
 .text          0x0000000000006054      0x190 ../RTOS_bsp/\libucosii_bsp.a(os_dbg.o)
                0x0000000000006054                OSDebugInit
 .text          0x00000000000061e4     0x1714 ../RTOS_bsp/\libucosii_bsp.a(os_flag.o)
                0x00000000000061e4                OSFlagAccept
                0x00000000000064ec                OSFlagCreate
                0x00000000000065f4                OSFlagDel
                0x000000000000683c                OSFlagNameGet
                0x0000000000006964                OSFlagNameSet
                0x0000000000006ab0                OSFlagPend
                0x0000000000007068                OSFlagPendGetFlagsRdy
                0x00000000000070c8                OSFlagPost
                0x000000000000745c                OSFlagQuery
                0x0000000000007680                OS_FlagInit
                0x0000000000007854                OS_FlagUnlink
 .text          0x00000000000078f8      0x754 ../RTOS_bsp/\libucosii_bsp.a(os_mem.o)
                0x00000000000078f8                OSMemCreate
                0x0000000000007acc                OSMemGet
                0x0000000000007bbc                OSMemNameGet
                0x0000000000007cac                OSMemNameSet
                0x0000000000007dc0                OSMemPut
                0x0000000000007e98                OSMemQuery
                0x0000000000007f80                OS_MemInit
 .text          0x000000000000804c     0x1104 ../RTOS_bsp/\libucosii_bsp.a(os_q.o)
                0x000000000000804c                OSQAccept
                0x000000000000818c                OSQCreate
                0x0000000000008338                OSQDel
                0x00000000000085b8                OSQFlush
                0x0000000000008670                OSQPend
                0x00000000000088fc                OSQPendAbort
                0x0000000000008a68                OSQPost
                0x0000000000008bd0                OSQPostFront
                0x0000000000008d40                OSQPostOpt
                0x0000000000008f4c                OSQQuery
                0x00000000000090a8                OS_QInit
 .text          0x0000000000009150      0xa60 ../RTOS_bsp/\libucosii_bsp.a(os_sem.o)
                0x0000000000009150                OSSemAccept
                0x0000000000009200                OSSemCreate
                0x00000000000092d8                OSSemDel
                0x0000000000009518                OSSemPend
                0x0000000000009724                OSSemPendAbort
                0x0000000000009890                OSSemPost
                0x00000000000099a0                OSSemQuery
                0x0000000000009ab0                OSSemSet
 .text          0x0000000000009bb0     0x176c ../RTOS_bsp/\libucosii_bsp.a(os_task.o)
                0x0000000000009bb0                OSTaskChangePrio
                0x000000000000a0a0                OSTaskCreate
                0x000000000000a24c                OSTaskCreateExt
                0x000000000000a430                OSTaskDel
                0x000000000000a774                OSTaskDelReq
                0x000000000000a8c4                OSTaskNameGet
                0x000000000000aa5c                OSTaskNameSet
                0x000000000000ac10                OSTaskResume
                0x000000000000ade4                OSTaskStkChk
                0x000000000000afa4                OSTaskSuspend
                0x000000000000b188                OSTaskQuery
                0x000000000000b2ac                OS_TaskStkClr
 .text          0x000000000000b31c      0x4ec ../RTOS_bsp/\libucosii_bsp.a(os_time.o)
                0x000000000000b31c                OSTimeDly
                0x000000000000b420                OSTimeDlyHMSM
                0x000000000000b578                OSTimeDlyResume
                0x000000000000b74c                OSTimeGet
                0x000000000000b7a8                OSTimeSet
 .text          0x000000000000b808       0xec ../RTOS_bsp/\libucosii_bsp.a(alt_sys_init.o)
                0x000000000000b83c                alt_irq_init
                0x000000000000b874                alt_sys_init
 .text          0x000000000000b8f4      0x164 ../RTOS_bsp/\libucosii_bsp.a(altera_avalon_jtag_uart_fd.o)
                0x000000000000b8f4                altera_avalon_jtag_uart_read_fd
                0x000000000000b954                altera_avalon_jtag_uart_write_fd
                0x000000000000b9b4                altera_avalon_jtag_uart_close_fd
                0x000000000000ba04                altera_avalon_jtag_uart_ioctl_fd
 .text          0x000000000000ba58      0x558 ../RTOS_bsp/\libucosii_bsp.a(altera_avalon_jtag_uart_init.o)
                0x000000000000ba58                altera_avalon_jtag_uart_init
                0x000000000000bf48                altera_avalon_jtag_uart_close
 .text          0x000000000000bfb0       0xf0 ../RTOS_bsp/\libucosii_bsp.a(altera_avalon_jtag_uart_ioctl.o)
                0x000000000000bfb0                altera_avalon_jtag_uart_ioctl
 .text          0x000000000000c0a0      0x2bc ../RTOS_bsp/\libucosii_bsp.a(altera_avalon_jtag_uart_read.o)
                0x000000000000c0a0                altera_avalon_jtag_uart_read
 .text          0x000000000000c35c      0x2c4 ../RTOS_bsp/\libucosii_bsp.a(altera_avalon_jtag_uart_write.o)
                0x000000000000c35c                altera_avalon_jtag_uart_write
 .text          0x000000000000c620       0xf4 ../RTOS_bsp/\libucosii_bsp.a(altera_avalon_timer_sc.o)
                0x000000000000c698                alt_avalon_timer_sc_init
 .text          0x000000000000c714      0x110 ../RTOS_bsp/\libucosii_bsp.a(altera_avalon_uart_fd.o)
                0x000000000000c714                altera_avalon_uart_read_fd
                0x000000000000c774                altera_avalon_uart_write_fd
                0x000000000000c7d4                altera_avalon_uart_close_fd
 .text          0x000000000000c824      0x52c ../RTOS_bsp/\libucosii_bsp.a(altera_avalon_uart_init.o)
                0x000000000000c824                altera_avalon_uart_init
                0x000000000000ccfc                altera_avalon_uart_close
 .text          0x000000000000cd50      0x2a4 ../RTOS_bsp/\libucosii_bsp.a(altera_avalon_uart_read.o)
                0x000000000000cd8c                altera_avalon_uart_read
 .text          0x000000000000cff4      0x274 ../RTOS_bsp/\libucosii_bsp.a(altera_avalon_uart_write.o)
                0x000000000000d030                altera_avalon_uart_write
 .text          0x000000000000d268      0x12c ../RTOS_bsp/\libucosii_bsp.a(alt_alarm_start.o)
                0x000000000000d268                alt_alarm_start
 .text          0x000000000000d394       0x48 ../RTOS_bsp/\libucosii_bsp.a(alt_dcache_flush_all.o)
                0x000000000000d394                alt_dcache_flush_all
 .text          0x000000000000d3dc       0xe0 ../RTOS_bsp/\libucosii_bsp.a(alt_dev_llist_insert.o)
                0x000000000000d418                alt_dev_llist_insert
 .text          0x000000000000d4bc       0x60 ../RTOS_bsp/\libucosii_bsp.a(alt_do_ctors.o)
                0x000000000000d4bc                _do_ctors
 .text          0x000000000000d51c       0x60 ../RTOS_bsp/\libucosii_bsp.a(alt_do_dtors.o)
                0x000000000000d51c                _do_dtors
 .text          0x000000000000d57c       0x34 ../RTOS_bsp/\libucosii_bsp.a(alt_icache_flush_all.o)
                0x000000000000d57c                alt_icache_flush_all
 .text          0x000000000000d5b0      0x1b0 ../RTOS_bsp/\libucosii_bsp.a(alt_iic.o)
                0x000000000000d5b0                alt_ic_isr_register
                0x000000000000d600                alt_ic_irq_enable
                0x000000000000d688                alt_ic_irq_disable
                0x000000000000d714                alt_ic_irq_enabled
 .text          0x000000000000d760       0xf0 ../RTOS_bsp/\libucosii_bsp.a(alt_iic_isr_register.o)
                0x000000000000d760                alt_iic_isr_register
 .text          0x000000000000d850      0x140 ../RTOS_bsp/\libucosii_bsp.a(alt_io_redirect.o)
                0x000000000000d914                alt_io_redirect
 .text          0x000000000000d990        0x0 ../RTOS_bsp/\libucosii_bsp.a(alt_irq_entry.o)
 .text          0x000000000000d990        0x0 ../RTOS_bsp/\libucosii_bsp.a(alt_irq_handler.o)
 .text          0x000000000000d990        0x0 ../RTOS_bsp/\libucosii_bsp.a(alt_irq_vars.o)
 .text          0x000000000000d990      0x254 ../RTOS_bsp/\libucosii_bsp.a(alt_open.o)
                0x000000000000da90                open
 .text          0x000000000000dbe4      0x1a4 ../RTOS_bsp/\libucosii_bsp.a(alt_tick.o)
                0x000000000000dbe4                alt_alarm_stop
                0x000000000000dc80                alt_tick
 .text          0x000000000000dd88       0x24 ../RTOS_bsp/\libucosii_bsp.a(altera_nios2_gen2_irq.o)
                0x000000000000dd88                altera_nios2_gen2_irq_init
 .text          0x000000000000ddac       0xd0 ../RTOS_bsp/\libucosii_bsp.a(os_cpu_a.o)
                0x000000000000ddac                OSCtxSw
                0x000000000000ddac                OSIntCtxSw
                0x000000000000de38                OSStartHighRdy
                0x000000000000de58                OSStartTsk
 .text          0x000000000000de7c      0x288 ../RTOS_bsp/\libucosii_bsp.a(os_cpu_c.o)
                0x000000000000de7c                OSTaskStkInit
                0x000000000000dfd8                OSTaskCreateHook
                0x000000000000dffc                OSTaskDelHook
                0x000000000000e020                OSTaskSwHook
                0x000000000000e040                OSTaskStatHook
                0x000000000000e060                OSTimeTickHook
                0x000000000000e080                OSInitHookBegin
                0x000000000000e0a0                OSInitHookEnd
                0x000000000000e0c0                OSTaskIdleHook
                0x000000000000e0e0                OSTCBInitHook
 .text          0x000000000000e104        0x0 ../RTOS_bsp/\libucosii_bsp.a(alt_exception_entry.o)
 .text          0x000000000000e104       0x90 ../RTOS_bsp/\libucosii_bsp.a(alt_find_dev.o)
                0x000000000000e104                alt_find_dev
 .text          0x000000000000e194      0x108 ../RTOS_bsp/\libucosii_bsp.a(alt_find_file.o)
                0x000000000000e194                alt_find_file
 .text          0x000000000000e29c       0xdc ../RTOS_bsp/\libucosii_bsp.a(alt_get_fd.o)
                0x000000000000e29c                alt_get_fd
 .text          0x000000000000e378       0x90 ../RTOS_bsp/\libucosii_bsp.a(alt_icache_flush.o)
                0x000000000000e378                alt_icache_flush
 .text          0x000000000000e408       0x9c ../RTOS_bsp/\libucosii_bsp.a(alt_instruction_exception_entry.o)
                0x000000000000e408                alt_exception_cause_generated_bad_addr
 .text          0x000000000000e4a4        0x0 c:/intelfpga_lite/18.1/nios2eds/bin/gnu/h-x86_64-mingw32/bin/../lib/gcc/nios2-elf/5.3.0/../../../../../H-x86_64-mingw32/nios2-elf/lib\libc.a(lib_a-atexit.o)
 .text.atexit   0x000000000000e4a4       0x14 c:/intelfpga_lite/18.1/nios2eds/bin/gnu/h-x86_64-mingw32/bin/../lib/gcc/nios2-elf/5.3.0/../../../../../H-x86_64-mingw32/nios2-elf/lib\libc.a(lib_a-atexit.o)
                0x000000000000e4a4                atexit
 .text          0x000000000000e4b8        0x0 c:/intelfpga_lite/18.1/nios2eds/bin/gnu/h-x86_64-mingw32/bin/../lib/gcc/nios2-elf/5.3.0/../../../../../H-x86_64-mingw32/nios2-elf/lib\libc.a(lib_a-exit.o)
 .text.exit     0x000000000000e4b8       0x38 c:/intelfpga_lite/18.1/nios2eds/bin/gnu/h-x86_64-mingw32/bin/../lib/gcc/nios2-elf/5.3.0/../../../../../H-x86_64-mingw32/nios2-elf/lib\libc.a(lib_a-exit.o)
                0x000000000000e4b8                exit
 .text          0x000000000000e4f0        0x0 c:/intelfpga_lite/18.1/nios2eds/bin/gnu/h-x86_64-mingw32/bin/../lib/gcc/nios2-elf/5.3.0/../../../../../H-x86_64-mingw32/nios2-elf/lib\libc.a(lib_a-fputs.o)
 .text._fputs_r
                0x000000000000e4f0       0x9c c:/intelfpga_lite/18.1/nios2eds/bin/gnu/h-x86_64-mingw32/bin/../lib/gcc/nios2-elf/5.3.0/../../../../../H-x86_64-mingw32/nios2-elf/lib\libc.a(lib_a-fputs.o)
                0x000000000000e4f0                _fputs_r
 .text.fputs    0x000000000000e58c       0x18 c:/intelfpga_lite/18.1/nios2eds/bin/gnu/h-x86_64-mingw32/bin/../lib/gcc/nios2-elf/5.3.0/../../../../../H-x86_64-mingw32/nios2-elf/lib\libc.a(lib_a-fputs.o)
                0x000000000000e58c                fputs
 .text          0x000000000000e5a4        0x0 c:/intelfpga_lite/18.1/nios2eds/bin/gnu/h-x86_64-mingw32/bin/../lib/gcc/nios2-elf/5.3.0/../../../../../H-x86_64-mingw32/nios2-elf/lib\libc.a(lib_a-memcmp.o)
 .text.memcmp   0x000000000000e5a4       0x7c c:/intelfpga_lite/18.1/nios2eds/bin/gnu/h-x86_64-mingw32/bin/../lib/gcc/nios2-elf/5.3.0/../../../../../H-x86_64-mingw32/nios2-elf/lib\libc.a(lib_a-memcmp.o)
                0x000000000000e5a4                memcmp
 .text          0x000000000000e620        0x0 c:/intelfpga_lite/18.1/nios2eds/bin/gnu/h-x86_64-mingw32/bin/../lib/gcc/nios2-elf/5.3.0/../../../../../H-x86_64-mingw32/nios2-elf/lib\libc.a(lib_a-putc.o)
 .text._putc_r  0x000000000000e620       0xa0 c:/intelfpga_lite/18.1/nios2eds/bin/gnu/h-x86_64-mingw32/bin/../lib/gcc/nios2-elf/5.3.0/../../../../../H-x86_64-mingw32/nios2-elf/lib\libc.a(lib_a-putc.o)
                0x000000000000e620                _putc_r
 .text.putc     0x000000000000e6c0       0xc8 c:/intelfpga_lite/18.1/nios2eds/bin/gnu/h-x86_64-mingw32/bin/../lib/gcc/nios2-elf/5.3.0/../../../../../H-x86_64-mingw32/nios2-elf/lib\libc.a(lib_a-putc.o)
                0x000000000000e6c0                putc
 .text          0x000000000000e788        0x0 c:/intelfpga_lite/18.1/nios2eds/bin/gnu/h-x86_64-mingw32/bin/../lib/gcc/nios2-elf/5.3.0/../../../../../H-x86_64-mingw32/nios2-elf/lib\libc.a(lib_a-wbuf.o)
 .text.__swbuf_r
                0x000000000000e788      0x140 c:/intelfpga_lite/18.1/nios2eds/bin/gnu/h-x86_64-mingw32/bin/../lib/gcc/nios2-elf/5.3.0/../../../../../H-x86_64-mingw32/nios2-elf/lib\libc.a(lib_a-wbuf.o)
                0x000000000000e788                __swbuf_r
 .text.__swbuf  0x000000000000e8c8       0x18 c:/intelfpga_lite/18.1/nios2eds/bin/gnu/h-x86_64-mingw32/bin/../lib/gcc/nios2-elf/5.3.0/../../../../../H-x86_64-mingw32/nios2-elf/lib\libc.a(lib_a-wbuf.o)
                0x000000000000e8c8                __swbuf
 .text          0x000000000000e8e0        0x0 c:/intelfpga_lite/18.1/nios2eds/bin/gnu/h-x86_64-mingw32/bin/../lib/gcc/nios2-elf/5.3.0/../../../../../H-x86_64-mingw32/nios2-elf/lib\libc.a(lib_a-__atexit.o)
 .text.__register_exitproc
                0x000000000000e8e0      0x118 c:/intelfpga_lite/18.1/nios2eds/bin/gnu/h-x86_64-mingw32/bin/../lib/gcc/nios2-elf/5.3.0/../../../../../H-x86_64-mingw32/nios2-elf/lib\libc.a(lib_a-__atexit.o)
                0x000000000000e8e0                __register_exitproc
 .text          0x000000000000e9f8        0x0 c:/intelfpga_lite/18.1/nios2eds/bin/gnu/h-x86_64-mingw32/bin/../lib/gcc/nios2-elf/5.3.0/../../../../../H-x86_64-mingw32/nios2-elf/lib\libc.a(lib_a-__call_atexit.o)
 .text.__call_exitprocs
                0x000000000000e9f8      0x180 c:/intelfpga_lite/18.1/nios2eds/bin/gnu/h-x86_64-mingw32/bin/../lib/gcc/nios2-elf/5.3.0/../../../../../H-x86_64-mingw32/nios2-elf/lib\libc.a(lib_a-__call_atexit.o)
                0x000000000000e9f8                __call_exitprocs
 .text          0x000000000000eb78       0x34 ../RTOS_bsp/\libucosii_bsp.a(alt_exit.o)
                0x000000000000eb78                _exit
 *(.gnu.warning.*)
 *(.fini)
                [!provide]                        PROVIDE (__etext, ABSOLUTE (.))
                [!provide]                        PROVIDE (_etext, ABSOLUTE (.))
                [!provide]                        PROVIDE (etext, ABSOLUTE (.))
 *(.eh_frame_hdr)
                0x000000000000ebac                . = ALIGN (0x4)
                [!provide]                        PROVIDE (__preinit_array_start, ABSOLUTE (.))
 *(.preinit_array)
                [!provide]                        PROVIDE (__preinit_array_end, ABSOLUTE (.))
                [!provide]                        PROVIDE (__init_array_start, ABSOLUTE (.))
 *(.init_array)
                [!provide]                        PROVIDE (__init_array_end, ABSOLUTE (.))
                [!provide]                        PROVIDE (__fini_array_start, ABSOLUTE (.))
 *(.fini_array)
                [!provide]                        PROVIDE (__fini_array_end, ABSOLUTE (.))
 *(.eh_frame)
 *(.gcc_except_table .gcc_except_table.*)
 *(.dynamic)
                0x000000000000ebac                PROVIDE (__CTOR_LIST__, ABSOLUTE (.))
 *(.ctors)
 *(SORT(.ctors.*))
                0x000000000000ebac                PROVIDE (__CTOR_END__, ABSOLUTE (.))
                0x000000000000ebac                PROVIDE (__DTOR_LIST__, ABSOLUTE (.))
 *(.dtors)
 *(SORT(.dtors.*))
                0x000000000000ebac                PROVIDE (__DTOR_END__, ABSOLUTE (.))
 *(.jcr)
                0x000000000000ebac                . = ALIGN (0x4)

.rodata         0x000000000000ebac      0x47c
                0x000000000000ebac                PROVIDE (__ram_rodata_start, ABSOLUTE (.))
                0x000000000000ebac                . = ALIGN (0x4)
 *(.rodata .rodata.* .gnu.linkonce.r.*)
 .rodata        0x000000000000ebac      0x30f obj/default/hello_ucosii.o
 *fill*         0x000000000000eebb        0x1 
 .rodata.str1.4
                0x000000000000eebc        0x2 c:/intelfpga_lite/18.1/nios2eds/bin/gnu/h-x86_64-mingw32/bin/../lib/gcc/nios2-elf/5.3.0/../../../../../H-x86_64-mingw32/nios2-elf/lib\libc.a(lib_a-puts.o)
 *fill*         0x000000000000eebe        0x2 
 .rodata.str1.4
                0x000000000000eec0        0x4 c:/intelfpga_lite/18.1/nios2eds/bin/gnu/h-x86_64-mingw32/bin/../lib/gcc/nios2-elf/5.3.0/../../../../../H-x86_64-mingw32/nios2-elf/lib\libc.a(lib_a-impure.o)
                                          0x2 (size before relaxing)
 .rodata        0x000000000000eec4        0xa ../RTOS_bsp/\libucosii_bsp.a(alt_dev.o)
 *fill*         0x000000000000eece        0x2 
 .rodata        0x000000000000eed0       0x11 ../RTOS_bsp/\libucosii_bsp.a(alt_main.o)
 *fill*         0x000000000000eee1        0x3 
 .rodata        0x000000000000eee4      0x11e ../RTOS_bsp/\libucosii_bsp.a(os_core.o)
                0x000000000000eee4                OSUnMapTbl
 *fill*         0x000000000000f002        0x2 
 .rodata        0x000000000000f004       0x20 ../RTOS_bsp/\libucosii_bsp.a(alt_sys_init.o)
 .rodata        0x000000000000f024        0x2 ../RTOS_bsp/\libucosii_bsp.a(os_cpu_c.o)
 *(.rodata1)
                0x000000000000f028                . = ALIGN (0x4)
 *fill*         0x000000000000f026        0x2 
                0x000000000000f028                PROVIDE (__ram_rodata_end, ABSOLUTE (.))
                0x000000000000ebac                PROVIDE (__flash_rodata_start, LOADADDR (.rodata))

.rwdata         0x000000000000f028     0x1bec load address 0x0000000000010c14
                0x000000000000f028                PROVIDE (__ram_rwdata_start, ABSOLUTE (.))
                0x000000000000f028                . = ALIGN (0x4)
 *(.got.plt)
 *(.got)
 *(.data1)
 *(.data .data.* .gnu.linkonce.d.*)
 .data          0x000000000000f028        0x0 ../RTOS_bsp//obj/HAL/src/crt0.o
 .data          0x000000000000f028        0xa obj/default/hello_ucosii.o
                0x000000000000f028                char_array
 .data          0x000000000000f032        0x0 c:/intelfpga_lite/18.1/nios2eds/bin/gnu/h-x86_64-mingw32/bin/../lib/gcc/nios2-elf/5.3.0\libgcc.a(lib2-divmod.o)
 .data          0x000000000000f032        0x0 c:/intelfpga_lite/18.1/nios2eds/bin/gnu/h-x86_64-mingw32/bin/../lib/gcc/nios2-elf/5.3.0/../../../../../H-x86_64-mingw32/nios2-elf/lib\libc.a(lib_a-puts.o)
 .data          0x000000000000f032        0x0 c:/intelfpga_lite/18.1/nios2eds/bin/gnu/h-x86_64-mingw32/bin/../lib/gcc/nios2-elf/5.3.0/../../../../../H-x86_64-mingw32/nios2-elf/lib\libc.a(lib_a-strlen.o)
 .data          0x000000000000f032        0x0 c:/intelfpga_lite/18.1/nios2eds/bin/gnu/h-x86_64-mingw32/bin/../lib/gcc/nios2-elf/5.3.0/../../../../../H-x86_64-mingw32/nios2-elf/lib\libc.a(lib_a-findfp.o)
 .data          0x000000000000f032        0x0 c:/intelfpga_lite/18.1/nios2eds/bin/gnu/h-x86_64-mingw32/bin/../lib/gcc/nios2-elf/5.3.0/../../../../../H-x86_64-mingw32/nios2-elf/lib\libc.a(lib_a-fvwrite.o)
 .data          0x000000000000f032        0x0 c:/intelfpga_lite/18.1/nios2eds/bin/gnu/h-x86_64-mingw32/bin/../lib/gcc/nios2-elf/5.3.0/../../../../../H-x86_64-mingw32/nios2-elf/lib\libc.a(lib_a-fwalk.o)
 .data          0x000000000000f032        0x0 c:/intelfpga_lite/18.1/nios2eds/bin/gnu/h-x86_64-mingw32/bin/../lib/gcc/nios2-elf/5.3.0/../../../../../H-x86_64-mingw32/nios2-elf/lib\libc.a(lib_a-impure.o)
 *fill*         0x000000000000f032        0x2 
 .data.impure_data
                0x000000000000f034      0x424 c:/intelfpga_lite/18.1/nios2eds/bin/gnu/h-x86_64-mingw32/bin/../lib/gcc/nios2-elf/5.3.0/../../../../../H-x86_64-mingw32/nios2-elf/lib\libc.a(lib_a-impure.o)
 .data          0x000000000000f458        0x0 c:/intelfpga_lite/18.1/nios2eds/bin/gnu/h-x86_64-mingw32/bin/../lib/gcc/nios2-elf/5.3.0/../../../../../H-x86_64-mingw32/nios2-elf/lib\libc.a(lib_a-mallocr.o)
 .data.__malloc_av_
                0x000000000000f458      0x408 c:/intelfpga_lite/18.1/nios2eds/bin/gnu/h-x86_64-mingw32/bin/../lib/gcc/nios2-elf/5.3.0/../../../../../H-x86_64-mingw32/nios2-elf/lib\libc.a(lib_a-mallocr.o)
                0x000000000000f458                __malloc_av_
 .data          0x000000000000f860        0x0 c:/intelfpga_lite/18.1/nios2eds/bin/gnu/h-x86_64-mingw32/bin/../lib/gcc/nios2-elf/5.3.0/../../../../../H-x86_64-mingw32/nios2-elf/lib\libc.a(lib_a-memchr.o)
 .data          0x000000000000f860        0x0 c:/intelfpga_lite/18.1/nios2eds/bin/gnu/h-x86_64-mingw32/bin/../lib/gcc/nios2-elf/5.3.0/../../../../../H-x86_64-mingw32/nios2-elf/lib\libc.a(lib_a-memcpy.o)
 .data          0x000000000000f860        0x0 c:/intelfpga_lite/18.1/nios2eds/bin/gnu/h-x86_64-mingw32/bin/../lib/gcc/nios2-elf/5.3.0/../../../../../H-x86_64-mingw32/nios2-elf/lib\libc.a(lib_a-memmove.o)
 .data          0x000000000000f860        0x0 c:/intelfpga_lite/18.1/nios2eds/bin/gnu/h-x86_64-mingw32/bin/../lib/gcc/nios2-elf/5.3.0/../../../../../H-x86_64-mingw32/nios2-elf/lib\libc.a(lib_a-memset.o)
 .data          0x000000000000f860        0x0 c:/intelfpga_lite/18.1/nios2eds/bin/gnu/h-x86_64-mingw32/bin/../lib/gcc/nios2-elf/5.3.0/../../../../../H-x86_64-mingw32/nios2-elf/lib\libc.a(lib_a-reallocr.o)
 .data          0x000000000000f860        0x0 c:/intelfpga_lite/18.1/nios2eds/bin/gnu/h-x86_64-mingw32/bin/../lib/gcc/nios2-elf/5.3.0/../../../../../H-x86_64-mingw32/nios2-elf/lib\libc.a(lib_a-sbrkr.o)
 .data          0x000000000000f860        0x0 c:/intelfpga_lite/18.1/nios2eds/bin/gnu/h-x86_64-mingw32/bin/../lib/gcc/nios2-elf/5.3.0/../../../../../H-x86_64-mingw32/nios2-elf/lib\libc.a(lib_a-stdio.o)
 .data          0x000000000000f860        0x0 c:/intelfpga_lite/18.1/nios2eds/bin/gnu/h-x86_64-mingw32/bin/../lib/gcc/nios2-elf/5.3.0/../../../../../H-x86_64-mingw32/nios2-elf/lib\libc.a(lib_a-writer.o)
 .data          0x000000000000f860        0x0 c:/intelfpga_lite/18.1/nios2eds/bin/gnu/h-x86_64-mingw32/bin/../lib/gcc/nios2-elf/5.3.0/../../../../../H-x86_64-mingw32/nios2-elf/lib\libc.a(lib_a-wsetup.o)
 .data          0x000000000000f860        0x0 c:/intelfpga_lite/18.1/nios2eds/bin/gnu/h-x86_64-mingw32/bin/../lib/gcc/nios2-elf/5.3.0/../../../../../H-x86_64-mingw32/nios2-elf/lib\libc.a(closer.o)
 .data          0x000000000000f860        0x0 c:/intelfpga_lite/18.1/nios2eds/bin/gnu/h-x86_64-mingw32/bin/../lib/gcc/nios2-elf/5.3.0/../../../../../H-x86_64-mingw32/nios2-elf/lib\libc.a(lib_a-fclose.o)
 .data          0x000000000000f860        0x0 c:/intelfpga_lite/18.1/nios2eds/bin/gnu/h-x86_64-mingw32/bin/../lib/gcc/nios2-elf/5.3.0/../../../../../H-x86_64-mingw32/nios2-elf/lib\libc.a(lib_a-fflush.o)
 .data          0x000000000000f860        0x0 c:/intelfpga_lite/18.1/nios2eds/bin/gnu/h-x86_64-mingw32/bin/../lib/gcc/nios2-elf/5.3.0/../../../../../H-x86_64-mingw32/nios2-elf/lib\libc.a(lib_a-freer.o)
 .data          0x000000000000f860        0x0 c:/intelfpga_lite/18.1/nios2eds/bin/gnu/h-x86_64-mingw32/bin/../lib/gcc/nios2-elf/5.3.0/../../../../../H-x86_64-mingw32/nios2-elf/lib\libc.a(lib_a-int_errno.o)
 .data          0x000000000000f860        0x0 c:/intelfpga_lite/18.1/nios2eds/bin/gnu/h-x86_64-mingw32/bin/../lib/gcc/nios2-elf/5.3.0/../../../../../H-x86_64-mingw32/nios2-elf/lib\libc.a(lib_a-lseekr.o)
 .data          0x000000000000f860        0x0 c:/intelfpga_lite/18.1/nios2eds/bin/gnu/h-x86_64-mingw32/bin/../lib/gcc/nios2-elf/5.3.0/../../../../../H-x86_64-mingw32/nios2-elf/lib\libc.a(lib_a-makebuf.o)
 .data          0x000000000000f860        0x0 c:/intelfpga_lite/18.1/nios2eds/bin/gnu/h-x86_64-mingw32/bin/../lib/gcc/nios2-elf/5.3.0/../../../../../H-x86_64-mingw32/nios2-elf/lib\libc.a(lib_a-readr.o)
 .data          0x000000000000f860        0x0 c:/intelfpga_lite/18.1/nios2eds/bin/gnu/h-x86_64-mingw32/bin/../lib/gcc/nios2-elf/5.3.0/../../../../../H-x86_64-mingw32/nios2-elf/lib\libc.a(lib_a-fstatr.o)
 .data          0x000000000000f860        0x0 c:/intelfpga_lite/18.1/nios2eds/bin/gnu/h-x86_64-mingw32/bin/../lib/gcc/nios2-elf/5.3.0/../../../../../H-x86_64-mingw32/nios2-elf/lib\libc.a(lib_a-isattyr.o)
 .data          0x000000000000f860        0x0 ../RTOS_bsp/\libucosii_bsp.a(alt_close.o)
 .data          0x000000000000f860      0x1a8 ../RTOS_bsp/\libucosii_bsp.a(alt_dev.o)
                0x000000000000f860                alt_dev_null
                0x000000000000f888                alt_fd_list
 .data          0x000000000000fa08        0x0 ../RTOS_bsp/\libucosii_bsp.a(alt_errno.o)
 .data          0x000000000000fa08        0x0 ../RTOS_bsp/\libucosii_bsp.a(alt_fstat.o)
 .data          0x000000000000fa08        0x0 ../RTOS_bsp/\libucosii_bsp.a(alt_isatty.o)
 .data          0x000000000000fa08        0x0 ../RTOS_bsp/\libucosii_bsp.a(alt_load.o)
 .data          0x000000000000fa08        0x0 ../RTOS_bsp/\libucosii_bsp.a(alt_lseek.o)
 .data          0x000000000000fa08        0x0 ../RTOS_bsp/\libucosii_bsp.a(alt_main.o)
 .data          0x000000000000fa08        0x0 ../RTOS_bsp/\libucosii_bsp.a(alt_putchar.o)
 .data          0x000000000000fa08        0x0 ../RTOS_bsp/\libucosii_bsp.a(alt_putstr.o)
 .data          0x000000000000fa08        0x0 ../RTOS_bsp/\libucosii_bsp.a(alt_read.o)
 .data          0x000000000000fa08        0x0 ../RTOS_bsp/\libucosii_bsp.a(alt_release_fd.o)
 .data          0x000000000000fa08        0x0 ../RTOS_bsp/\libucosii_bsp.a(alt_sbrk.o)
 .data          0x000000000000fa08        0x0 ../RTOS_bsp/\libucosii_bsp.a(alt_write.o)
 .data          0x000000000000fa08        0x0 ../RTOS_bsp/\libucosii_bsp.a(alt_env_lock.o)
 .data          0x000000000000fa08        0x0 ../RTOS_bsp/\libucosii_bsp.a(alt_malloc_lock.o)
 .data          0x000000000000fa08        0x0 ../RTOS_bsp/\libucosii_bsp.a(os_core.o)
 .data          0x000000000000fa08        0x0 ../RTOS_bsp/\libucosii_bsp.a(os_dbg.o)
 .data          0x000000000000fa08        0x0 ../RTOS_bsp/\libucosii_bsp.a(os_flag.o)
 .data          0x000000000000fa08        0x0 ../RTOS_bsp/\libucosii_bsp.a(os_mem.o)
 .data          0x000000000000fa08        0x0 ../RTOS_bsp/\libucosii_bsp.a(os_q.o)
 .data          0x000000000000fa08        0x0 ../RTOS_bsp/\libucosii_bsp.a(os_sem.o)
 .data          0x000000000000fa08        0x0 ../RTOS_bsp/\libucosii_bsp.a(os_task.o)
 .data          0x000000000000fa08        0x0 ../RTOS_bsp/\libucosii_bsp.a(os_time.o)
 .data          0x000000000000fa08     0x113c ../RTOS_bsp/\libucosii_bsp.a(alt_sys_init.o)
 .data          0x0000000000010b44        0x0 ../RTOS_bsp/\libucosii_bsp.a(altera_avalon_jtag_uart_fd.o)
 .data          0x0000000000010b44        0x0 ../RTOS_bsp/\libucosii_bsp.a(altera_avalon_jtag_uart_init.o)
 .data          0x0000000000010b44        0x0 ../RTOS_bsp/\libucosii_bsp.a(altera_avalon_jtag_uart_ioctl.o)
 .data          0x0000000000010b44        0x0 ../RTOS_bsp/\libucosii_bsp.a(altera_avalon_jtag_uart_read.o)
 .data          0x0000000000010b44        0x0 ../RTOS_bsp/\libucosii_bsp.a(altera_avalon_jtag_uart_write.o)
 .data          0x0000000000010b44        0x0 ../RTOS_bsp/\libucosii_bsp.a(altera_avalon_timer_sc.o)
 .data          0x0000000000010b44        0x0 ../RTOS_bsp/\libucosii_bsp.a(altera_avalon_uart_fd.o)
 .data          0x0000000000010b44        0x0 ../RTOS_bsp/\libucosii_bsp.a(altera_avalon_uart_init.o)
 .data          0x0000000000010b44        0x0 ../RTOS_bsp/\libucosii_bsp.a(altera_avalon_uart_read.o)
 .data          0x0000000000010b44        0x0 ../RTOS_bsp/\libucosii_bsp.a(altera_avalon_uart_write.o)
 .data          0x0000000000010b44        0x0 ../RTOS_bsp/\libucosii_bsp.a(alt_alarm_start.o)
 .data          0x0000000000010b44        0x0 ../RTOS_bsp/\libucosii_bsp.a(alt_dcache_flush_all.o)
 .data          0x0000000000010b44        0x0 ../RTOS_bsp/\libucosii_bsp.a(alt_dev_llist_insert.o)
 .data          0x0000000000010b44        0x0 ../RTOS_bsp/\libucosii_bsp.a(alt_do_ctors.o)
 .data          0x0000000000010b44        0x0 ../RTOS_bsp/\libucosii_bsp.a(alt_do_dtors.o)
 .data          0x0000000000010b44        0x0 ../RTOS_bsp/\libucosii_bsp.a(alt_icache_flush_all.o)
 .data          0x0000000000010b44        0x0 ../RTOS_bsp/\libucosii_bsp.a(alt_iic.o)
 .data          0x0000000000010b44        0x0 ../RTOS_bsp/\libucosii_bsp.a(alt_iic_isr_register.o)
 .data          0x0000000000010b44        0x0 ../RTOS_bsp/\libucosii_bsp.a(alt_io_redirect.o)
 .data          0x0000000000010b44        0x0 ../RTOS_bsp/\libucosii_bsp.a(alt_irq_entry.o)
 .data          0x0000000000010b44        0x0 ../RTOS_bsp/\libucosii_bsp.a(alt_irq_handler.o)
 .data          0x0000000000010b44        0x0 ../RTOS_bsp/\libucosii_bsp.a(alt_irq_vars.o)
 .data          0x0000000000010b44        0x0 ../RTOS_bsp/\libucosii_bsp.a(alt_open.o)
 .data          0x0000000000010b44        0x0 ../RTOS_bsp/\libucosii_bsp.a(alt_tick.o)
 .data          0x0000000000010b44        0x0 ../RTOS_bsp/\libucosii_bsp.a(altera_nios2_gen2_irq.o)
 .data          0x0000000000010b44        0x0 ../RTOS_bsp/\libucosii_bsp.a(os_cpu_a.o)
 .data          0x0000000000010b44        0x0 ../RTOS_bsp/\libucosii_bsp.a(os_cpu_c.o)
 .data          0x0000000000010b44        0x0 ../RTOS_bsp/\libucosii_bsp.a(alt_exception_entry.o)
 .data          0x0000000000010b44        0x0 ../RTOS_bsp/\libucosii_bsp.a(alt_find_dev.o)
 .data          0x0000000000010b44        0x0 ../RTOS_bsp/\libucosii_bsp.a(alt_find_file.o)
 .data          0x0000000000010b44        0x0 ../RTOS_bsp/\libucosii_bsp.a(alt_get_fd.o)
 .data          0x0000000000010b44        0x0 ../RTOS_bsp/\libucosii_bsp.a(alt_icache_flush.o)
 .data          0x0000000000010b44        0x0 ../RTOS_bsp/\libucosii_bsp.a(alt_instruction_exception_entry.o)
 .data          0x0000000000010b44        0x0 c:/intelfpga_lite/18.1/nios2eds/bin/gnu/h-x86_64-mingw32/bin/../lib/gcc/nios2-elf/5.3.0/../../../../../H-x86_64-mingw32/nios2-elf/lib\libc.a(lib_a-atexit.o)
 .data          0x0000000000010b44        0x0 c:/intelfpga_lite/18.1/nios2eds/bin/gnu/h-x86_64-mingw32/bin/../lib/gcc/nios2-elf/5.3.0/../../../../../H-x86_64-mingw32/nios2-elf/lib\libc.a(lib_a-exit.o)
 .data          0x0000000000010b44        0x0 c:/intelfpga_lite/18.1/nios2eds/bin/gnu/h-x86_64-mingw32/bin/../lib/gcc/nios2-elf/5.3.0/../../../../../H-x86_64-mingw32/nios2-elf/lib\libc.a(lib_a-fputs.o)
 .data          0x0000000000010b44        0x0 c:/intelfpga_lite/18.1/nios2eds/bin/gnu/h-x86_64-mingw32/bin/../lib/gcc/nios2-elf/5.3.0/../../../../../H-x86_64-mingw32/nios2-elf/lib\libc.a(lib_a-memcmp.o)
 .data          0x0000000000010b44        0x0 c:/intelfpga_lite/18.1/nios2eds/bin/gnu/h-x86_64-mingw32/bin/../lib/gcc/nios2-elf/5.3.0/../../../../../H-x86_64-mingw32/nios2-elf/lib\libc.a(lib_a-putc.o)
 .data          0x0000000000010b44        0x0 c:/intelfpga_lite/18.1/nios2eds/bin/gnu/h-x86_64-mingw32/bin/../lib/gcc/nios2-elf/5.3.0/../../../../../H-x86_64-mingw32/nios2-elf/lib\libc.a(lib_a-wbuf.o)
 .data          0x0000000000010b44        0x0 c:/intelfpga_lite/18.1/nios2eds/bin/gnu/h-x86_64-mingw32/bin/../lib/gcc/nios2-elf/5.3.0/../../../../../H-x86_64-mingw32/nios2-elf/lib\libc.a(lib_a-__atexit.o)
 .data          0x0000000000010b44        0x0 c:/intelfpga_lite/18.1/nios2eds/bin/gnu/h-x86_64-mingw32/bin/../lib/gcc/nios2-elf/5.3.0/../../../../../H-x86_64-mingw32/nios2-elf/lib\libc.a(lib_a-__call_atexit.o)
 .data          0x0000000000010b44        0x0 ../RTOS_bsp/\libucosii_bsp.a(alt_exit.o)
                0x0000000000018b44                _gp = ABSOLUTE ((. + 0x8000))
                [!provide]                        PROVIDE (gp, _gp)
 *(.rwdata .rwdata.*)
 *(.sdata .sdata.* .gnu.linkonce.s.*)
 .sdata         0x0000000000010b44       0x1c obj/default/hello_ucosii.o
                0x0000000000010b44                LEDR
                0x0000000000010b48                KEY1
                0x0000000000010b4c                MSB
                0x0000000000010b50                HEX0
                0x0000000000010b54                UART
                0x0000000000010b58                UART_TX
                0x0000000000010b5c                UART_ctl
 .sdata._global_impure_ptr
                0x0000000000010b60        0x4 c:/intelfpga_lite/18.1/nios2eds/bin/gnu/h-x86_64-mingw32/bin/../lib/gcc/nios2-elf/5.3.0/../../../../../H-x86_64-mingw32/nios2-elf/lib\libc.a(lib_a-impure.o)
                0x0000000000010b60                _global_impure_ptr
 .sdata._impure_ptr
                0x0000000000010b64        0x4 c:/intelfpga_lite/18.1/nios2eds/bin/gnu/h-x86_64-mingw32/bin/../lib/gcc/nios2-elf/5.3.0/../../../../../H-x86_64-mingw32/nios2-elf/lib\libc.a(lib_a-impure.o)
                0x0000000000010b64                _impure_ptr
 .sdata.__malloc_sbrk_base
                0x0000000000010b68        0x4 c:/intelfpga_lite/18.1/nios2eds/bin/gnu/h-x86_64-mingw32/bin/../lib/gcc/nios2-elf/5.3.0/../../../../../H-x86_64-mingw32/nios2-elf/lib\libc.a(lib_a-mallocr.o)
                0x0000000000010b68                __malloc_sbrk_base
 .sdata.__malloc_trim_threshold
                0x0000000000010b6c        0x4 c:/intelfpga_lite/18.1/nios2eds/bin/gnu/h-x86_64-mingw32/bin/../lib/gcc/nios2-elf/5.3.0/../../../../../H-x86_64-mingw32/nios2-elf/lib\libc.a(lib_a-mallocr.o)
                0x0000000000010b6c                __malloc_trim_threshold
 .sdata         0x0000000000010b70       0x14 ../RTOS_bsp/\libucosii_bsp.a(alt_dev.o)
                0x0000000000010b70                alt_fs_list
                0x0000000000010b78                alt_dev_list
                0x0000000000010b80                alt_max_fd
 .sdata         0x0000000000010b84        0x4 ../RTOS_bsp/\libucosii_bsp.a(alt_errno.o)
                0x0000000000010b84                alt_errno
 .sdata         0x0000000000010b88        0x4 ../RTOS_bsp/\libucosii_bsp.a(alt_sbrk.o)
 .sdata         0x0000000000010b8c        0x4 ../RTOS_bsp/\libucosii_bsp.a(alt_env_lock.o)
 .sdata         0x0000000000010b90        0x4 ../RTOS_bsp/\libucosii_bsp.a(alt_malloc_lock.o)
 .sdata         0x0000000000010b94       0x72 ../RTOS_bsp/\libucosii_bsp.a(os_dbg.o)
                0x0000000000010b94                OSDebugEn
                0x0000000000010b98                OSEndiannessTest
                0x0000000000010b9c                OSEventEn
                0x0000000000010b9e                OSEventMax
                0x0000000000010ba0                OSEventNameSize
                0x0000000000010ba2                OSEventSize
                0x0000000000010ba4                OSEventTblSize
                0x0000000000010ba6                OSEventMultiEn
                0x0000000000010ba8                OSFlagEn
                0x0000000000010baa                OSFlagGrpSize
                0x0000000000010bac                OSFlagNodeSize
                0x0000000000010bae                OSFlagWidth
                0x0000000000010bb0                OSFlagMax
                0x0000000000010bb2                OSFlagNameSize
                0x0000000000010bb4                OSLowestPrio
                0x0000000000010bb6                OSMboxEn
                0x0000000000010bb8                OSMemEn
                0x0000000000010bba                OSMemMax
                0x0000000000010bbc                OSMemNameSize
                0x0000000000010bbe                OSMemSize
                0x0000000000010bc0                OSMemTblSize
                0x0000000000010bc2                OSMutexEn
                0x0000000000010bc4                OSPtrSize
                0x0000000000010bc6                OSQEn
                0x0000000000010bc8                OSQMax
                0x0000000000010bca                OSQSize
                0x0000000000010bcc                OSRdyTblSize
                0x0000000000010bce                OSSemEn
                0x0000000000010bd0                OSStkWidth
                0x0000000000010bd2                OSTaskCreateEn
                0x0000000000010bd4                OSTaskCreateExtEn
                0x0000000000010bd6                OSTaskDelEn
                0x0000000000010bd8                OSTaskIdleStkSize
                0x0000000000010bda                OSTaskProfileEn
                0x0000000000010bdc                OSTaskMax
                0x0000000000010bde                OSTaskNameSize
                0x0000000000010be0                OSTaskStatEn
                0x0000000000010be2                OSTaskStatStkSize
                0x0000000000010be4                OSTaskStatStkChkEn
                0x0000000000010be6                OSTaskSwHookEn
                0x0000000000010be8                OSTCBPrioTblMax
                0x0000000000010bea                OSTCBSize
                0x0000000000010bec                OSTicksPerSec
                0x0000000000010bee                OSTimeTickHookEn
                0x0000000000010bf0                OSVersionNbr
                0x0000000000010bf2                OSTmrEn
                0x0000000000010bf4                OSTmrCfgMax
                0x0000000000010bf6                OSTmrCfgNameSize
                0x0000000000010bf8                OSTmrCfgWheelSize
                0x0000000000010bfa                OSTmrCfgTicksPerSec
                0x0000000000010bfc                OSTmrSize
                0x0000000000010bfe                OSTmrTblSize
                0x0000000000010c00                OSTmrWheelSize
                0x0000000000010c02                OSTmrWheelTblSize
                0x0000000000010c04                OSDataSize
 *fill*         0x0000000000010c06        0x2 
 .sdata         0x0000000000010c08        0x4 ../RTOS_bsp/\libucosii_bsp.a(alt_irq_vars.o)
                0x0000000000010c08                alt_priority_mask
 .sdata         0x0000000000010c0c        0x8 ../RTOS_bsp/\libucosii_bsp.a(alt_tick.o)
                0x0000000000010c0c                alt_alarm_list
 *(.sdata2 .sdata2.* .gnu.linkonce.s2.*)
                0x0000000000010c14                . = ALIGN (0x4)
                0x0000000000010c14                _edata = ABSOLUTE (.)
                [!provide]                        PROVIDE (edata, ABSOLUTE (.))
                0x0000000000010c14                PROVIDE (__ram_rwdata_end, ABSOLUTE (.))
                0x0000000000010c14                PROVIDE (__flash_rwdata_start, LOADADDR (.rwdata))

.bss            0x0000000000012800     0x549c
                0x0000000000012800                __bss_start = ABSOLUTE (.)
                [!provide]                        PROVIDE (__sbss_start, ABSOLUTE (.))
                [!provide]                        PROVIDE (___sbss_start, ABSOLUTE (.))
 *(.dynsbss)
 *(.sbss .sbss.* .gnu.linkonce.sb.*)
 .sbss.__malloc_max_total_mem
                0x0000000000012800        0x4 c:/intelfpga_lite/18.1/nios2eds/bin/gnu/h-x86_64-mingw32/bin/../lib/gcc/nios2-elf/5.3.0/../../../../../H-x86_64-mingw32/nios2-elf/lib\libc.a(lib_a-mallocr.o)
                0x0000000000012800                __malloc_max_total_mem
 .sbss.__malloc_max_sbrked_mem
                0x0000000000012804        0x4 c:/intelfpga_lite/18.1/nios2eds/bin/gnu/h-x86_64-mingw32/bin/../lib/gcc/nios2-elf/5.3.0/../../../../../H-x86_64-mingw32/nios2-elf/lib\libc.a(lib_a-mallocr.o)
                0x0000000000012804                __malloc_max_sbrked_mem
 .sbss.__malloc_top_pad
                0x0000000000012808        0x4 c:/intelfpga_lite/18.1/nios2eds/bin/gnu/h-x86_64-mingw32/bin/../lib/gcc/nios2-elf/5.3.0/../../../../../H-x86_64-mingw32/nios2-elf/lib\libc.a(lib_a-mallocr.o)
                0x0000000000012808                __malloc_top_pad
 .sbss          0x000000000001280c        0x4 c:/intelfpga_lite/18.1/nios2eds/bin/gnu/h-x86_64-mingw32/bin/../lib/gcc/nios2-elf/5.3.0/../../../../../H-x86_64-mingw32/nios2-elf/lib\libc.a(lib_a-int_errno.o)
                0x000000000001280c                errno
 .sbss          0x0000000000012810        0x4 ../RTOS_bsp/\libucosii_bsp.a(alt_dev.o)
                0x0000000000012810                alt_fd_list_lock
 .sbss          0x0000000000012814        0xc ../RTOS_bsp/\libucosii_bsp.a(alt_main.o)
                0x0000000000012814                alt_argc
                0x0000000000012818                alt_argv
                0x000000000001281c                alt_envp
 .sbss          0x0000000000012820        0x8 ../RTOS_bsp/\libucosii_bsp.a(alt_env_lock.o)
                0x0000000000012824                alt_envsem
 .sbss          0x0000000000012828        0x8 ../RTOS_bsp/\libucosii_bsp.a(alt_malloc_lock.o)
                0x000000000001282c                alt_heapsem
 .sbss          0x0000000000012830       0x50 ../RTOS_bsp/\libucosii_bsp.a(os_core.o)
                0x0000000000012830                OSLockNesting
                0x0000000000012831                OSRunning
                0x0000000000012834                OSIdleCtr
                0x0000000000012838                OSPrioHighRdy
                0x0000000000012839                OSPrioCur
                0x000000000001283c                OSTCBList
                0x0000000000012840                OSTickStepState
                0x0000000000012844                OSCtxSwCtr
                0x0000000000012848                OSIdleCtrMax
                0x000000000001284c                OSTCBFreeList
                0x0000000000012850                OSCPUUsage
                0x0000000000012851                OSTaskCtr
                0x0000000000012854                OSMemFreeList
                0x0000000000012858                OSTCBHighRdy
                0x000000000001285c                OSQFreeList
                0x0000000000012860                OSRdyGrp
                0x0000000000012861                OSRdyTbl
                0x0000000000012864                OSEventFreeList
                0x0000000000012868                OSIntNesting
                0x000000000001286c                OSTCBCur
                0x0000000000012870                OSTime
                0x0000000000012874                OSFlagFreeList
                0x0000000000012878                OSStatRdy
                0x000000000001287c                OSIdleCtrRun
 .sbss          0x0000000000012880        0x4 ../RTOS_bsp/\libucosii_bsp.a(alt_irq_vars.o)
                0x0000000000012880                alt_irq_active
 .sbss          0x0000000000012884        0x8 ../RTOS_bsp/\libucosii_bsp.a(alt_tick.o)
                0x0000000000012884                _alt_tick_rate
                0x0000000000012888                _alt_nticks
 .sbss          0x000000000001288c        0x4 ../RTOS_bsp/\libucosii_bsp.a(alt_instruction_exception_entry.o)
                0x000000000001288c                alt_instruction_exception_handler
 *(.sbss2 .sbss2.* .gnu.linkonce.sb2.*)
 *(.scommon)
                [!provide]                        PROVIDE (__sbss_end, ABSOLUTE (.))
                [!provide]                        PROVIDE (___sbss_end, ABSOLUTE (.))
 *(.dynbss)
 *(.bss .bss.* .gnu.linkonce.b.*)
 .bss           0x0000000000012890        0x0 ../RTOS_bsp//obj/HAL/src/crt0.o
 .bss           0x0000000000012890        0x0 obj/default/hello_ucosii.o
 .bss           0x0000000000012890        0x0 c:/intelfpga_lite/18.1/nios2eds/bin/gnu/h-x86_64-mingw32/bin/../lib/gcc/nios2-elf/5.3.0\libgcc.a(lib2-divmod.o)
 .bss           0x0000000000012890        0x0 c:/intelfpga_lite/18.1/nios2eds/bin/gnu/h-x86_64-mingw32/bin/../lib/gcc/nios2-elf/5.3.0/../../../../../H-x86_64-mingw32/nios2-elf/lib\libc.a(lib_a-puts.o)
 .bss           0x0000000000012890        0x0 c:/intelfpga_lite/18.1/nios2eds/bin/gnu/h-x86_64-mingw32/bin/../lib/gcc/nios2-elf/5.3.0/../../../../../H-x86_64-mingw32/nios2-elf/lib\libc.a(lib_a-strlen.o)
 .bss           0x0000000000012890        0x0 c:/intelfpga_lite/18.1/nios2eds/bin/gnu/h-x86_64-mingw32/bin/../lib/gcc/nios2-elf/5.3.0/../../../../../H-x86_64-mingw32/nios2-elf/lib\libc.a(lib_a-findfp.o)
 .bss           0x0000000000012890        0x0 c:/intelfpga_lite/18.1/nios2eds/bin/gnu/h-x86_64-mingw32/bin/../lib/gcc/nios2-elf/5.3.0/../../../../../H-x86_64-mingw32/nios2-elf/lib\libc.a(lib_a-fvwrite.o)
 .bss           0x0000000000012890        0x0 c:/intelfpga_lite/18.1/nios2eds/bin/gnu/h-x86_64-mingw32/bin/../lib/gcc/nios2-elf/5.3.0/../../../../../H-x86_64-mingw32/nios2-elf/lib\libc.a(lib_a-fwalk.o)
 .bss           0x0000000000012890        0x0 c:/intelfpga_lite/18.1/nios2eds/bin/gnu/h-x86_64-mingw32/bin/../lib/gcc/nios2-elf/5.3.0/../../../../../H-x86_64-mingw32/nios2-elf/lib\libc.a(lib_a-impure.o)
 .bss           0x0000000000012890        0x0 c:/intelfpga_lite/18.1/nios2eds/bin/gnu/h-x86_64-mingw32/bin/../lib/gcc/nios2-elf/5.3.0/../../../../../H-x86_64-mingw32/nios2-elf/lib\libc.a(lib_a-mallocr.o)
 .bss.__malloc_current_mallinfo
                0x0000000000012890       0x28 c:/intelfpga_lite/18.1/nios2eds/bin/gnu/h-x86_64-mingw32/bin/../lib/gcc/nios2-elf/5.3.0/../../../../../H-x86_64-mingw32/nios2-elf/lib\libc.a(lib_a-mallocr.o)
                0x0000000000012890                __malloc_current_mallinfo
 .bss           0x00000000000128b8        0x0 c:/intelfpga_lite/18.1/nios2eds/bin/gnu/h-x86_64-mingw32/bin/../lib/gcc/nios2-elf/5.3.0/../../../../../H-x86_64-mingw32/nios2-elf/lib\libc.a(lib_a-memchr.o)
 .bss           0x00000000000128b8        0x0 c:/intelfpga_lite/18.1/nios2eds/bin/gnu/h-x86_64-mingw32/bin/../lib/gcc/nios2-elf/5.3.0/../../../../../H-x86_64-mingw32/nios2-elf/lib\libc.a(lib_a-memcpy.o)
 .bss           0x00000000000128b8        0x0 c:/intelfpga_lite/18.1/nios2eds/bin/gnu/h-x86_64-mingw32/bin/../lib/gcc/nios2-elf/5.3.0/../../../../../H-x86_64-mingw32/nios2-elf/lib\libc.a(lib_a-memmove.o)
 .bss           0x00000000000128b8        0x0 c:/intelfpga_lite/18.1/nios2eds/bin/gnu/h-x86_64-mingw32/bin/../lib/gcc/nios2-elf/5.3.0/../../../../../H-x86_64-mingw32/nios2-elf/lib\libc.a(lib_a-memset.o)
 .bss           0x00000000000128b8        0x0 c:/intelfpga_lite/18.1/nios2eds/bin/gnu/h-x86_64-mingw32/bin/../lib/gcc/nios2-elf/5.3.0/../../../../../H-x86_64-mingw32/nios2-elf/lib\libc.a(lib_a-reallocr.o)
 .bss           0x00000000000128b8        0x0 c:/intelfpga_lite/18.1/nios2eds/bin/gnu/h-x86_64-mingw32/bin/../lib/gcc/nios2-elf/5.3.0/../../../../../H-x86_64-mingw32/nios2-elf/lib\libc.a(lib_a-sbrkr.o)
 .bss           0x00000000000128b8        0x0 c:/intelfpga_lite/18.1/nios2eds/bin/gnu/h-x86_64-mingw32/bin/../lib/gcc/nios2-elf/5.3.0/../../../../../H-x86_64-mingw32/nios2-elf/lib\libc.a(lib_a-stdio.o)
 .bss           0x00000000000128b8        0x0 c:/intelfpga_lite/18.1/nios2eds/bin/gnu/h-x86_64-mingw32/bin/../lib/gcc/nios2-elf/5.3.0/../../../../../H-x86_64-mingw32/nios2-elf/lib\libc.a(lib_a-writer.o)
 .bss           0x00000000000128b8        0x0 c:/intelfpga_lite/18.1/nios2eds/bin/gnu/h-x86_64-mingw32/bin/../lib/gcc/nios2-elf/5.3.0/../../../../../H-x86_64-mingw32/nios2-elf/lib\libc.a(lib_a-wsetup.o)
 .bss           0x00000000000128b8        0x0 c:/intelfpga_lite/18.1/nios2eds/bin/gnu/h-x86_64-mingw32/bin/../lib/gcc/nios2-elf/5.3.0/../../../../../H-x86_64-mingw32/nios2-elf/lib\libc.a(closer.o)
 .bss           0x00000000000128b8        0x0 c:/intelfpga_lite/18.1/nios2eds/bin/gnu/h-x86_64-mingw32/bin/../lib/gcc/nios2-elf/5.3.0/../../../../../H-x86_64-mingw32/nios2-elf/lib\libc.a(lib_a-fclose.o)
 .bss           0x00000000000128b8        0x0 c:/intelfpga_lite/18.1/nios2eds/bin/gnu/h-x86_64-mingw32/bin/../lib/gcc/nios2-elf/5.3.0/../../../../../H-x86_64-mingw32/nios2-elf/lib\libc.a(lib_a-fflush.o)
 .bss           0x00000000000128b8        0x0 c:/intelfpga_lite/18.1/nios2eds/bin/gnu/h-x86_64-mingw32/bin/../lib/gcc/nios2-elf/5.3.0/../../../../../H-x86_64-mingw32/nios2-elf/lib\libc.a(lib_a-freer.o)
 .bss           0x00000000000128b8        0x0 c:/intelfpga_lite/18.1/nios2eds/bin/gnu/h-x86_64-mingw32/bin/../lib/gcc/nios2-elf/5.3.0/../../../../../H-x86_64-mingw32/nios2-elf/lib\libc.a(lib_a-int_errno.o)
 .bss           0x00000000000128b8        0x0 c:/intelfpga_lite/18.1/nios2eds/bin/gnu/h-x86_64-mingw32/bin/../lib/gcc/nios2-elf/5.3.0/../../../../../H-x86_64-mingw32/nios2-elf/lib\libc.a(lib_a-lseekr.o)
 .bss           0x00000000000128b8        0x0 c:/intelfpga_lite/18.1/nios2eds/bin/gnu/h-x86_64-mingw32/bin/../lib/gcc/nios2-elf/5.3.0/../../../../../H-x86_64-mingw32/nios2-elf/lib\libc.a(lib_a-makebuf.o)
 .bss           0x00000000000128b8        0x0 c:/intelfpga_lite/18.1/nios2eds/bin/gnu/h-x86_64-mingw32/bin/../lib/gcc/nios2-elf/5.3.0/../../../../../H-x86_64-mingw32/nios2-elf/lib\libc.a(lib_a-readr.o)
 .bss           0x00000000000128b8        0x0 c:/intelfpga_lite/18.1/nios2eds/bin/gnu/h-x86_64-mingw32/bin/../lib/gcc/nios2-elf/5.3.0/../../../../../H-x86_64-mingw32/nios2-elf/lib\libc.a(lib_a-fstatr.o)
 .bss           0x00000000000128b8        0x0 c:/intelfpga_lite/18.1/nios2eds/bin/gnu/h-x86_64-mingw32/bin/../lib/gcc/nios2-elf/5.3.0/../../../../../H-x86_64-mingw32/nios2-elf/lib\libc.a(lib_a-isattyr.o)
 .bss           0x00000000000128b8        0x0 ../RTOS_bsp/\libucosii_bsp.a(alt_close.o)
 .bss           0x00000000000128b8        0x0 ../RTOS_bsp/\libucosii_bsp.a(alt_dev.o)
 .bss           0x00000000000128b8        0x0 ../RTOS_bsp/\libucosii_bsp.a(alt_errno.o)
 .bss           0x00000000000128b8        0x0 ../RTOS_bsp/\libucosii_bsp.a(alt_fstat.o)
 .bss           0x00000000000128b8        0x0 ../RTOS_bsp/\libucosii_bsp.a(alt_isatty.o)
 .bss           0x00000000000128b8        0x0 ../RTOS_bsp/\libucosii_bsp.a(alt_load.o)
 .bss           0x00000000000128b8        0x0 ../RTOS_bsp/\libucosii_bsp.a(alt_lseek.o)
 .bss           0x00000000000128b8        0x0 ../RTOS_bsp/\libucosii_bsp.a(alt_main.o)
 .bss           0x00000000000128b8        0x0 ../RTOS_bsp/\libucosii_bsp.a(alt_putchar.o)
 .bss           0x00000000000128b8        0x0 ../RTOS_bsp/\libucosii_bsp.a(alt_putstr.o)
 .bss           0x00000000000128b8        0x0 ../RTOS_bsp/\libucosii_bsp.a(alt_read.o)
 .bss           0x00000000000128b8        0x0 ../RTOS_bsp/\libucosii_bsp.a(alt_release_fd.o)
 .bss           0x00000000000128b8        0x0 ../RTOS_bsp/\libucosii_bsp.a(alt_sbrk.o)
 .bss           0x00000000000128b8        0x0 ../RTOS_bsp/\libucosii_bsp.a(alt_write.o)
 .bss           0x00000000000128b8        0x0 ../RTOS_bsp/\libucosii_bsp.a(alt_env_lock.o)
 .bss           0x00000000000128b8        0x0 ../RTOS_bsp/\libucosii_bsp.a(alt_malloc_lock.o)
 .bss           0x00000000000128b8        0x0 ../RTOS_bsp/\libucosii_bsp.a(os_core.o)
 .bss           0x00000000000128b8        0x0 ../RTOS_bsp/\libucosii_bsp.a(os_dbg.o)
 .bss           0x00000000000128b8        0x0 ../RTOS_bsp/\libucosii_bsp.a(os_flag.o)
 .bss           0x00000000000128b8        0x0 ../RTOS_bsp/\libucosii_bsp.a(os_mem.o)
 .bss           0x00000000000128b8        0x0 ../RTOS_bsp/\libucosii_bsp.a(os_q.o)
 .bss           0x00000000000128b8        0x0 ../RTOS_bsp/\libucosii_bsp.a(os_sem.o)
 .bss           0x00000000000128b8        0x0 ../RTOS_bsp/\libucosii_bsp.a(os_task.o)
 .bss           0x00000000000128b8        0x0 ../RTOS_bsp/\libucosii_bsp.a(os_time.o)
 .bss           0x00000000000128b8        0x0 ../RTOS_bsp/\libucosii_bsp.a(alt_sys_init.o)
 .bss           0x00000000000128b8        0x0 ../RTOS_bsp/\libucosii_bsp.a(altera_avalon_jtag_uart_fd.o)
 .bss           0x00000000000128b8        0x0 ../RTOS_bsp/\libucosii_bsp.a(altera_avalon_jtag_uart_init.o)
 .bss           0x00000000000128b8        0x0 ../RTOS_bsp/\libucosii_bsp.a(altera_avalon_jtag_uart_ioctl.o)
 .bss           0x00000000000128b8        0x0 ../RTOS_bsp/\libucosii_bsp.a(altera_avalon_jtag_uart_read.o)
 .bss           0x00000000000128b8        0x0 ../RTOS_bsp/\libucosii_bsp.a(altera_avalon_jtag_uart_write.o)
 .bss           0x00000000000128b8        0x0 ../RTOS_bsp/\libucosii_bsp.a(altera_avalon_timer_sc.o)
 .bss           0x00000000000128b8        0x0 ../RTOS_bsp/\libucosii_bsp.a(altera_avalon_uart_fd.o)
 .bss           0x00000000000128b8        0x0 ../RTOS_bsp/\libucosii_bsp.a(altera_avalon_uart_init.o)
 .bss           0x00000000000128b8        0x0 ../RTOS_bsp/\libucosii_bsp.a(altera_avalon_uart_read.o)
 .bss           0x00000000000128b8        0x0 ../RTOS_bsp/\libucosii_bsp.a(altera_avalon_uart_write.o)
 .bss           0x00000000000128b8        0x0 ../RTOS_bsp/\libucosii_bsp.a(alt_alarm_start.o)
 .bss           0x00000000000128b8        0x0 ../RTOS_bsp/\libucosii_bsp.a(alt_dcache_flush_all.o)
 .bss           0x00000000000128b8        0x0 ../RTOS_bsp/\libucosii_bsp.a(alt_dev_llist_insert.o)
 .bss           0x00000000000128b8        0x0 ../RTOS_bsp/\libucosii_bsp.a(alt_do_ctors.o)
 .bss           0x00000000000128b8        0x0 ../RTOS_bsp/\libucosii_bsp.a(alt_do_dtors.o)
 .bss           0x00000000000128b8        0x0 ../RTOS_bsp/\libucosii_bsp.a(alt_icache_flush_all.o)
 .bss           0x00000000000128b8        0x0 ../RTOS_bsp/\libucosii_bsp.a(alt_iic.o)
 .bss           0x00000000000128b8        0x0 ../RTOS_bsp/\libucosii_bsp.a(alt_iic_isr_register.o)
 .bss           0x00000000000128b8        0x0 ../RTOS_bsp/\libucosii_bsp.a(alt_io_redirect.o)
 .bss           0x00000000000128b8        0x0 ../RTOS_bsp/\libucosii_bsp.a(alt_irq_entry.o)
 .bss           0x00000000000128b8        0x0 ../RTOS_bsp/\libucosii_bsp.a(alt_irq_handler.o)
 .bss           0x00000000000128b8        0x0 ../RTOS_bsp/\libucosii_bsp.a(alt_irq_vars.o)
 .bss           0x00000000000128b8        0x0 ../RTOS_bsp/\libucosii_bsp.a(alt_open.o)
 .bss           0x00000000000128b8        0x0 ../RTOS_bsp/\libucosii_bsp.a(alt_tick.o)
 .bss           0x00000000000128b8        0x0 ../RTOS_bsp/\libucosii_bsp.a(altera_nios2_gen2_irq.o)
 .bss           0x00000000000128b8        0x0 ../RTOS_bsp/\libucosii_bsp.a(os_cpu_a.o)
 .bss           0x00000000000128b8        0x0 ../RTOS_bsp/\libucosii_bsp.a(os_cpu_c.o)
 .bss           0x00000000000128b8        0x0 ../RTOS_bsp/\libucosii_bsp.a(alt_exception_entry.o)
 .bss           0x00000000000128b8        0x0 ../RTOS_bsp/\libucosii_bsp.a(alt_find_dev.o)
 .bss           0x00000000000128b8        0x0 ../RTOS_bsp/\libucosii_bsp.a(alt_find_file.o)
 .bss           0x00000000000128b8        0x0 ../RTOS_bsp/\libucosii_bsp.a(alt_get_fd.o)
 .bss           0x00000000000128b8        0x0 ../RTOS_bsp/\libucosii_bsp.a(alt_icache_flush.o)
 .bss           0x00000000000128b8        0x0 ../RTOS_bsp/\libucosii_bsp.a(alt_instruction_exception_entry.o)
 .bss           0x00000000000128b8        0x0 c:/intelfpga_lite/18.1/nios2eds/bin/gnu/h-x86_64-mingw32/bin/../lib/gcc/nios2-elf/5.3.0/../../../../../H-x86_64-mingw32/nios2-elf/lib\libc.a(lib_a-atexit.o)
 .bss           0x00000000000128b8        0x0 c:/intelfpga_lite/18.1/nios2eds/bin/gnu/h-x86_64-mingw32/bin/../lib/gcc/nios2-elf/5.3.0/../../../../../H-x86_64-mingw32/nios2-elf/lib\libc.a(lib_a-exit.o)
 .bss           0x00000000000128b8        0x0 c:/intelfpga_lite/18.1/nios2eds/bin/gnu/h-x86_64-mingw32/bin/../lib/gcc/nios2-elf/5.3.0/../../../../../H-x86_64-mingw32/nios2-elf/lib\libc.a(lib_a-fputs.o)
 .bss           0x00000000000128b8        0x0 c:/intelfpga_lite/18.1/nios2eds/bin/gnu/h-x86_64-mingw32/bin/../lib/gcc/nios2-elf/5.3.0/../../../../../H-x86_64-mingw32/nios2-elf/lib\libc.a(lib_a-memcmp.o)
 .bss           0x00000000000128b8        0x0 c:/intelfpga_lite/18.1/nios2eds/bin/gnu/h-x86_64-mingw32/bin/../lib/gcc/nios2-elf/5.3.0/../../../../../H-x86_64-mingw32/nios2-elf/lib\libc.a(lib_a-putc.o)
 .bss           0x00000000000128b8        0x0 c:/intelfpga_lite/18.1/nios2eds/bin/gnu/h-x86_64-mingw32/bin/../lib/gcc/nios2-elf/5.3.0/../../../../../H-x86_64-mingw32/nios2-elf/lib\libc.a(lib_a-wbuf.o)
 .bss           0x00000000000128b8        0x0 c:/intelfpga_lite/18.1/nios2eds/bin/gnu/h-x86_64-mingw32/bin/../lib/gcc/nios2-elf/5.3.0/../../../../../H-x86_64-mingw32/nios2-elf/lib\libc.a(lib_a-__atexit.o)
 .bss           0x00000000000128b8        0x0 c:/intelfpga_lite/18.1/nios2eds/bin/gnu/h-x86_64-mingw32/bin/../lib/gcc/nios2-elf/5.3.0/../../../../../H-x86_64-mingw32/nios2-elf/lib\libc.a(lib_a-__call_atexit.o)
 .bss           0x00000000000128b8        0x0 ../RTOS_bsp/\libucosii_bsp.a(alt_exit.o)
 *(COMMON)
 COMMON         0x00000000000128b8     0x20c0 obj/default/hello_ucosii.o
                0x00000000000128b8                task1_stk
                0x0000000000013918                task2_stk
 COMMON         0x0000000000014978     0x3224 ../RTOS_bsp/\libucosii_bsp.a(os_core.o)
                0x0000000000014978                OSFlagTbl
                0x0000000000014ce8                OSMemTbl
                0x0000000000015918                OSTaskStatStk
                0x0000000000016118                OSQTbl
                0x00000000000162f8                OSTaskIdleStk
                0x0000000000016af8                OSEventTbl
                0x0000000000017638                OSTCBTbl
                0x0000000000017b48                OSTCBPrioTbl
 COMMON         0x0000000000017b9c      0x100 ../RTOS_bsp/\libucosii_bsp.a(alt_irq_handler.o)
                0x0000000000017b9c                alt_irq
                0x0000000000017c9c                . = ALIGN (0x4)
                0x0000000000017c9c                __bss_end = ABSOLUTE (.)

.new_sdram_controller_0
                0x0000000000017c9c        0x0
                [!provide]                        PROVIDE (_alt_partition_new_sdram_controller_0_start, ABSOLUTE (.))
 *(.new_sdram_controller_0 .new_sdram_controller_0. new_sdram_controller_0.*)
                0x0000000000017c9c                . = ALIGN (0x4)
                [!provide]                        PROVIDE (_alt_partition_new_sdram_controller_0_end, ABSOLUTE (.))
                0x0000000000017c9c                _end = ABSOLUTE (.)
                0x0000000000017c9c                end = ABSOLUTE (.)
                0x0000000000017c9c                __alt_stack_base = ABSOLUTE (.)
                [!provide]                        PROVIDE (_alt_partition_new_sdram_controller_0_load_addr, LOADADDR (.new_sdram_controller_0))

.onchip_memory2_0
                0x0000000004004000        0x0 load address 0x0000000000017c9c
                [!provide]                        PROVIDE (_alt_partition_onchip_memory2_0_start, ABSOLUTE (.))
 *(.onchip_memory2_0 .onchip_memory2_0. onchip_memory2_0.*)
                0x0000000004004000                . = ALIGN (0x4)
                [!provide]                        PROVIDE (_alt_partition_onchip_memory2_0_end, ABSOLUTE (.))
                [!provide]                        PROVIDE (_alt_partition_onchip_memory2_0_load_addr, LOADADDR (.onchip_memory2_0))

.stab
 *(.stab)

.stabstr
 *(.stabstr)

.stab.excl
 *(.stab.excl)

.stab.exclstr
 *(.stab.exclstr)

.stab.index
 *(.stab.index)

.stab.indexstr
 *(.stab.indexstr)

.comment        0x0000000000000000       0x23
 *(.comment)
 .comment       0x0000000000000000       0x23 obj/default/hello_ucosii.o
                                         0x24 (size before relaxing)
 .comment       0x0000000000000023       0x24 c:/intelfpga_lite/18.1/nios2eds/bin/gnu/h-x86_64-mingw32/bin/../lib/gcc/nios2-elf/5.3.0\libgcc.a(lib2-divmod.o)
 .comment       0x0000000000000023       0x24 c:/intelfpga_lite/18.1/nios2eds/bin/gnu/h-x86_64-mingw32/bin/../lib/gcc/nios2-elf/5.3.0/../../../../../H-x86_64-mingw32/nios2-elf/lib\libc.a(lib_a-puts.o)
 .comment       0x0000000000000023       0x24 c:/intelfpga_lite/18.1/nios2eds/bin/gnu/h-x86_64-mingw32/bin/../lib/gcc/nios2-elf/5.3.0/../../../../../H-x86_64-mingw32/nios2-elf/lib\libc.a(lib_a-strlen.o)
 .comment       0x0000000000000023       0x24 c:/intelfpga_lite/18.1/nios2eds/bin/gnu/h-x86_64-mingw32/bin/../lib/gcc/nios2-elf/5.3.0/../../../../../H-x86_64-mingw32/nios2-elf/lib\libc.a(lib_a-findfp.o)
 .comment       0x0000000000000023       0x24 c:/intelfpga_lite/18.1/nios2eds/bin/gnu/h-x86_64-mingw32/bin/../lib/gcc/nios2-elf/5.3.0/../../../../../H-x86_64-mingw32/nios2-elf/lib\libc.a(lib_a-fvwrite.o)
 .comment       0x0000000000000023       0x24 c:/intelfpga_lite/18.1/nios2eds/bin/gnu/h-x86_64-mingw32/bin/../lib/gcc/nios2-elf/5.3.0/../../../../../H-x86_64-mingw32/nios2-elf/lib\libc.a(lib_a-fwalk.o)
 .comment       0x0000000000000023       0x24 c:/intelfpga_lite/18.1/nios2eds/bin/gnu/h-x86_64-mingw32/bin/../lib/gcc/nios2-elf/5.3.0/../../../../../H-x86_64-mingw32/nios2-elf/lib\libc.a(lib_a-impure.o)
 .comment       0x0000000000000023       0x24 c:/intelfpga_lite/18.1/nios2eds/bin/gnu/h-x86_64-mingw32/bin/../lib/gcc/nios2-elf/5.3.0/../../../../../H-x86_64-mingw32/nios2-elf/lib\libc.a(lib_a-mallocr.o)
 .comment       0x0000000000000023       0x24 c:/intelfpga_lite/18.1/nios2eds/bin/gnu/h-x86_64-mingw32/bin/../lib/gcc/nios2-elf/5.3.0/../../../../../H-x86_64-mingw32/nios2-elf/lib\libc.a(lib_a-memchr.o)
 .comment       0x0000000000000023       0x24 c:/intelfpga_lite/18.1/nios2eds/bin/gnu/h-x86_64-mingw32/bin/../lib/gcc/nios2-elf/5.3.0/../../../../../H-x86_64-mingw32/nios2-elf/lib\libc.a(lib_a-memcpy.o)
 .comment       0x0000000000000023       0x24 c:/intelfpga_lite/18.1/nios2eds/bin/gnu/h-x86_64-mingw32/bin/../lib/gcc/nios2-elf/5.3.0/../../../../../H-x86_64-mingw32/nios2-elf/lib\libc.a(lib_a-memmove.o)
 .comment       0x0000000000000023       0x24 c:/intelfpga_lite/18.1/nios2eds/bin/gnu/h-x86_64-mingw32/bin/../lib/gcc/nios2-elf/5.3.0/../../../../../H-x86_64-mingw32/nios2-elf/lib\libc.a(lib_a-memset.o)
 .comment       0x0000000000000023       0x24 c:/intelfpga_lite/18.1/nios2eds/bin/gnu/h-x86_64-mingw32/bin/../lib/gcc/nios2-elf/5.3.0/../../../../../H-x86_64-mingw32/nios2-elf/lib\libc.a(lib_a-reallocr.o)
 .comment       0x0000000000000023       0x24 c:/intelfpga_lite/18.1/nios2eds/bin/gnu/h-x86_64-mingw32/bin/../lib/gcc/nios2-elf/5.3.0/../../../../../H-x86_64-mingw32/nios2-elf/lib\libc.a(lib_a-sbrkr.o)
 .comment       0x0000000000000023       0x24 c:/intelfpga_lite/18.1/nios2eds/bin/gnu/h-x86_64-mingw32/bin/../lib/gcc/nios2-elf/5.3.0/../../../../../H-x86_64-mingw32/nios2-elf/lib\libc.a(lib_a-stdio.o)
 .comment       0x0000000000000023       0x24 c:/intelfpga_lite/18.1/nios2eds/bin/gnu/h-x86_64-mingw32/bin/../lib/gcc/nios2-elf/5.3.0/../../../../../H-x86_64-mingw32/nios2-elf/lib\libc.a(lib_a-writer.o)
 .comment       0x0000000000000023       0x24 c:/intelfpga_lite/18.1/nios2eds/bin/gnu/h-x86_64-mingw32/bin/../lib/gcc/nios2-elf/5.3.0/../../../../../H-x86_64-mingw32/nios2-elf/lib\libc.a(lib_a-wsetup.o)
 .comment       0x0000000000000023       0x24 c:/intelfpga_lite/18.1/nios2eds/bin/gnu/h-x86_64-mingw32/bin/../lib/gcc/nios2-elf/5.3.0/../../../../../H-x86_64-mingw32/nios2-elf/lib\libc.a(closer.o)
 .comment       0x0000000000000023       0x24 c:/intelfpga_lite/18.1/nios2eds/bin/gnu/h-x86_64-mingw32/bin/../lib/gcc/nios2-elf/5.3.0/../../../../../H-x86_64-mingw32/nios2-elf/lib\libc.a(lib_a-fclose.o)
 .comment       0x0000000000000023       0x24 c:/intelfpga_lite/18.1/nios2eds/bin/gnu/h-x86_64-mingw32/bin/../lib/gcc/nios2-elf/5.3.0/../../../../../H-x86_64-mingw32/nios2-elf/lib\libc.a(lib_a-fflush.o)
 .comment       0x0000000000000023       0x24 c:/intelfpga_lite/18.1/nios2eds/bin/gnu/h-x86_64-mingw32/bin/../lib/gcc/nios2-elf/5.3.0/../../../../../H-x86_64-mingw32/nios2-elf/lib\libc.a(lib_a-freer.o)
 .comment       0x0000000000000023       0x24 c:/intelfpga_lite/18.1/nios2eds/bin/gnu/h-x86_64-mingw32/bin/../lib/gcc/nios2-elf/5.3.0/../../../../../H-x86_64-mingw32/nios2-elf/lib\libc.a(lib_a-int_errno.o)
 .comment       0x0000000000000023       0x24 c:/intelfpga_lite/18.1/nios2eds/bin/gnu/h-x86_64-mingw32/bin/../lib/gcc/nios2-elf/5.3.0/../../../../../H-x86_64-mingw32/nios2-elf/lib\libc.a(lib_a-lseekr.o)
 .comment       0x0000000000000023       0x24 c:/intelfpga_lite/18.1/nios2eds/bin/gnu/h-x86_64-mingw32/bin/../lib/gcc/nios2-elf/5.3.0/../../../../../H-x86_64-mingw32/nios2-elf/lib\libc.a(lib_a-makebuf.o)
 .comment       0x0000000000000023       0x24 c:/intelfpga_lite/18.1/nios2eds/bin/gnu/h-x86_64-mingw32/bin/../lib/gcc/nios2-elf/5.3.0/../../../../../H-x86_64-mingw32/nios2-elf/lib\libc.a(lib_a-readr.o)
 .comment       0x0000000000000023       0x24 c:/intelfpga_lite/18.1/nios2eds/bin/gnu/h-x86_64-mingw32/bin/../lib/gcc/nios2-elf/5.3.0/../../../../../H-x86_64-mingw32/nios2-elf/lib\libc.a(lib_a-fstatr.o)
 .comment       0x0000000000000023       0x24 c:/intelfpga_lite/18.1/nios2eds/bin/gnu/h-x86_64-mingw32/bin/../lib/gcc/nios2-elf/5.3.0/../../../../../H-x86_64-mingw32/nios2-elf/lib\libc.a(lib_a-isattyr.o)
 .comment       0x0000000000000023       0x24 ../RTOS_bsp/\libucosii_bsp.a(alt_close.o)
 .comment       0x0000000000000023       0x24 ../RTOS_bsp/\libucosii_bsp.a(alt_dev.o)
 .comment       0x0000000000000023       0x24 ../RTOS_bsp/\libucosii_bsp.a(alt_errno.o)
 .comment       0x0000000000000023       0x24 ../RTOS_bsp/\libucosii_bsp.a(alt_fstat.o)
 .comment       0x0000000000000023       0x24 ../RTOS_bsp/\libucosii_bsp.a(alt_isatty.o)
 .comment       0x0000000000000023       0x24 ../RTOS_bsp/\libucosii_bsp.a(alt_load.o)
 .comment       0x0000000000000023       0x24 ../RTOS_bsp/\libucosii_bsp.a(alt_lseek.o)
 .comment       0x0000000000000023       0x24 ../RTOS_bsp/\libucosii_bsp.a(alt_main.o)
 .comment       0x0000000000000023       0x24 ../RTOS_bsp/\libucosii_bsp.a(alt_putchar.o)
 .comment       0x0000000000000023       0x24 ../RTOS_bsp/\libucosii_bsp.a(alt_putstr.o)
 .comment       0x0000000000000023       0x24 ../RTOS_bsp/\libucosii_bsp.a(alt_read.o)
 .comment       0x0000000000000023       0x24 ../RTOS_bsp/\libucosii_bsp.a(alt_release_fd.o)
 .comment       0x0000000000000023       0x24 ../RTOS_bsp/\libucosii_bsp.a(alt_sbrk.o)
 .comment       0x0000000000000023       0x24 ../RTOS_bsp/\libucosii_bsp.a(alt_write.o)
 .comment       0x0000000000000023       0x24 ../RTOS_bsp/\libucosii_bsp.a(alt_env_lock.o)
 .comment       0x0000000000000023       0x24 ../RTOS_bsp/\libucosii_bsp.a(alt_malloc_lock.o)
 .comment       0x0000000000000023       0x24 ../RTOS_bsp/\libucosii_bsp.a(os_core.o)
 .comment       0x0000000000000023       0x24 ../RTOS_bsp/\libucosii_bsp.a(os_dbg.o)
 .comment       0x0000000000000023       0x24 ../RTOS_bsp/\libucosii_bsp.a(os_flag.o)
 .comment       0x0000000000000023       0x24 ../RTOS_bsp/\libucosii_bsp.a(os_mem.o)
 .comment       0x0000000000000023       0x24 ../RTOS_bsp/\libucosii_bsp.a(os_q.o)
 .comment       0x0000000000000023       0x24 ../RTOS_bsp/\libucosii_bsp.a(os_sem.o)
 .comment       0x0000000000000023       0x24 ../RTOS_bsp/\libucosii_bsp.a(os_task.o)
 .comment       0x0000000000000023       0x24 ../RTOS_bsp/\libucosii_bsp.a(os_time.o)
 .comment       0x0000000000000023       0x24 ../RTOS_bsp/\libucosii_bsp.a(alt_sys_init.o)
 .comment       0x0000000000000023       0x24 ../RTOS_bsp/\libucosii_bsp.a(altera_avalon_jtag_uart_fd.o)
 .comment       0x0000000000000023       0x24 ../RTOS_bsp/\libucosii_bsp.a(altera_avalon_jtag_uart_init.o)
 .comment       0x0000000000000023       0x24 ../RTOS_bsp/\libucosii_bsp.a(altera_avalon_jtag_uart_ioctl.o)
 .comment       0x0000000000000023       0x24 ../RTOS_bsp/\libucosii_bsp.a(altera_avalon_jtag_uart_read.o)
 .comment       0x0000000000000023       0x24 ../RTOS_bsp/\libucosii_bsp.a(altera_avalon_jtag_uart_write.o)
 .comment       0x0000000000000023       0x24 ../RTOS_bsp/\libucosii_bsp.a(altera_avalon_timer_sc.o)
 .comment       0x0000000000000023       0x24 ../RTOS_bsp/\libucosii_bsp.a(altera_avalon_uart_fd.o)
 .comment       0x0000000000000023       0x24 ../RTOS_bsp/\libucosii_bsp.a(altera_avalon_uart_init.o)
 .comment       0x0000000000000023       0x24 ../RTOS_bsp/\libucosii_bsp.a(altera_avalon_uart_read.o)
 .comment       0x0000000000000023       0x24 ../RTOS_bsp/\libucosii_bsp.a(altera_avalon_uart_write.o)
 .comment       0x0000000000000023       0x24 ../RTOS_bsp/\libucosii_bsp.a(alt_alarm_start.o)
 .comment       0x0000000000000023       0x24 ../RTOS_bsp/\libucosii_bsp.a(alt_dcache_flush_all.o)
 .comment       0x0000000000000023       0x24 ../RTOS_bsp/\libucosii_bsp.a(alt_dev_llist_insert.o)
 .comment       0x0000000000000023       0x24 ../RTOS_bsp/\libucosii_bsp.a(alt_do_ctors.o)
 .comment       0x0000000000000023       0x24 ../RTOS_bsp/\libucosii_bsp.a(alt_do_dtors.o)
 .comment       0x0000000000000023       0x24 ../RTOS_bsp/\libucosii_bsp.a(alt_icache_flush_all.o)
 .comment       0x0000000000000023       0x24 ../RTOS_bsp/\libucosii_bsp.a(alt_iic.o)
 .comment       0x0000000000000023       0x24 ../RTOS_bsp/\libucosii_bsp.a(alt_iic_isr_register.o)
 .comment       0x0000000000000023       0x24 ../RTOS_bsp/\libucosii_bsp.a(alt_io_redirect.o)
 .comment       0x0000000000000023       0x24 ../RTOS_bsp/\libucosii_bsp.a(alt_irq_handler.o)
 .comment       0x0000000000000023       0x24 ../RTOS_bsp/\libucosii_bsp.a(alt_irq_vars.o)
 .comment       0x0000000000000023       0x24 ../RTOS_bsp/\libucosii_bsp.a(alt_open.o)
 .comment       0x0000000000000023       0x24 ../RTOS_bsp/\libucosii_bsp.a(alt_tick.o)
 .comment       0x0000000000000023       0x24 ../RTOS_bsp/\libucosii_bsp.a(altera_nios2_gen2_irq.o)
 .comment       0x0000000000000023       0x24 ../RTOS_bsp/\libucosii_bsp.a(os_cpu_c.o)
 .comment       0x0000000000000023       0x24 ../RTOS_bsp/\libucosii_bsp.a(alt_find_dev.o)
 .comment       0x0000000000000023       0x24 ../RTOS_bsp/\libucosii_bsp.a(alt_find_file.o)
 .comment       0x0000000000000023       0x24 ../RTOS_bsp/\libucosii_bsp.a(alt_get_fd.o)
 .comment       0x0000000000000023       0x24 ../RTOS_bsp/\libucosii_bsp.a(alt_icache_flush.o)
 .comment       0x0000000000000023       0x24 ../RTOS_bsp/\libucosii_bsp.a(alt_instruction_exception_entry.o)
 .comment       0x0000000000000023       0x24 c:/intelfpga_lite/18.1/nios2eds/bin/gnu/h-x86_64-mingw32/bin/../lib/gcc/nios2-elf/5.3.0/../../../../../H-x86_64-mingw32/nios2-elf/lib\libc.a(lib_a-atexit.o)
 .comment       0x0000000000000023       0x24 c:/intelfpga_lite/18.1/nios2eds/bin/gnu/h-x86_64-mingw32/bin/../lib/gcc/nios2-elf/5.3.0/../../../../../H-x86_64-mingw32/nios2-elf/lib\libc.a(lib_a-exit.o)
 .comment       0x0000000000000023       0x24 c:/intelfpga_lite/18.1/nios2eds/bin/gnu/h-x86_64-mingw32/bin/../lib/gcc/nios2-elf/5.3.0/../../../../../H-x86_64-mingw32/nios2-elf/lib\libc.a(lib_a-fputs.o)
 .comment       0x0000000000000023       0x24 c:/intelfpga_lite/18.1/nios2eds/bin/gnu/h-x86_64-mingw32/bin/../lib/gcc/nios2-elf/5.3.0/../../../../../H-x86_64-mingw32/nios2-elf/lib\libc.a(lib_a-memcmp.o)
 .comment       0x0000000000000023       0x24 c:/intelfpga_lite/18.1/nios2eds/bin/gnu/h-x86_64-mingw32/bin/../lib/gcc/nios2-elf/5.3.0/../../../../../H-x86_64-mingw32/nios2-elf/lib\libc.a(lib_a-putc.o)
 .comment       0x0000000000000023       0x24 c:/intelfpga_lite/18.1/nios2eds/bin/gnu/h-x86_64-mingw32/bin/../lib/gcc/nios2-elf/5.3.0/../../../../../H-x86_64-mingw32/nios2-elf/lib\libc.a(lib_a-wbuf.o)
 .comment       0x0000000000000023       0x24 c:/intelfpga_lite/18.1/nios2eds/bin/gnu/h-x86_64-mingw32/bin/../lib/gcc/nios2-elf/5.3.0/../../../../../H-x86_64-mingw32/nios2-elf/lib\libc.a(lib_a-__atexit.o)
 .comment       0x0000000000000023       0x24 c:/intelfpga_lite/18.1/nios2eds/bin/gnu/h-x86_64-mingw32/bin/../lib/gcc/nios2-elf/5.3.0/../../../../../H-x86_64-mingw32/nios2-elf/lib\libc.a(lib_a-__call_atexit.o)
 .comment       0x0000000000000023       0x24 ../RTOS_bsp/\libucosii_bsp.a(alt_exit.o)

.debug
 *(.debug)

.line
 *(.line)

.debug_srcinfo
 *(.debug_srcinfo)

.debug_sfnames
 *(.debug_sfnames)

.debug_aranges  0x0000000000000000      0xcc8
 *(.debug_aranges)
 .debug_aranges
                0x0000000000000000       0x28 ../RTOS_bsp//obj/HAL/src/crt0.o
 .debug_aranges
                0x0000000000000028       0x20 obj/default/hello_ucosii.o
 .debug_aranges
                0x0000000000000048       0x20 c:/intelfpga_lite/18.1/nios2eds/bin/gnu/h-x86_64-mingw32/bin/../lib/gcc/nios2-elf/5.3.0\libgcc.a(lib2-divmod.o)
 .debug_aranges
                0x0000000000000068       0x28 c:/intelfpga_lite/18.1/nios2eds/bin/gnu/h-x86_64-mingw32/bin/../lib/gcc/nios2-elf/5.3.0/../../../../../H-x86_64-mingw32/nios2-elf/lib\libc.a(lib_a-puts.o)
 .debug_aranges
                0x0000000000000090       0x20 c:/intelfpga_lite/18.1/nios2eds/bin/gnu/h-x86_64-mingw32/bin/../lib/gcc/nios2-elf/5.3.0/../../../../../H-x86_64-mingw32/nios2-elf/lib\libc.a(lib_a-strlen.o)
 .debug_aranges
                0x00000000000000b0       0x68 c:/intelfpga_lite/18.1/nios2eds/bin/gnu/h-x86_64-mingw32/bin/../lib/gcc/nios2-elf/5.3.0/../../../../../H-x86_64-mingw32/nios2-elf/lib\libc.a(lib_a-findfp.o)
 .debug_aranges
                0x0000000000000118       0x20 c:/intelfpga_lite/18.1/nios2eds/bin/gnu/h-x86_64-mingw32/bin/../lib/gcc/nios2-elf/5.3.0/../../../../../H-x86_64-mingw32/nios2-elf/lib\libc.a(lib_a-fvwrite.o)
 .debug_aranges
                0x0000000000000138       0x28 c:/intelfpga_lite/18.1/nios2eds/bin/gnu/h-x86_64-mingw32/bin/../lib/gcc/nios2-elf/5.3.0/../../../../../H-x86_64-mingw32/nios2-elf/lib\libc.a(lib_a-fwalk.o)
 .debug_aranges
                0x0000000000000160       0x18 c:/intelfpga_lite/18.1/nios2eds/bin/gnu/h-x86_64-mingw32/bin/../lib/gcc/nios2-elf/5.3.0/../../../../../H-x86_64-mingw32/nios2-elf/lib\libc.a(lib_a-impure.o)
 .debug_aranges
                0x0000000000000178       0x20 c:/intelfpga_lite/18.1/nios2eds/bin/gnu/h-x86_64-mingw32/bin/../lib/gcc/nios2-elf/5.3.0/../../../../../H-x86_64-mingw32/nios2-elf/lib\libc.a(lib_a-mallocr.o)
 .debug_aranges
                0x0000000000000198       0x20 c:/intelfpga_lite/18.1/nios2eds/bin/gnu/h-x86_64-mingw32/bin/../lib/gcc/nios2-elf/5.3.0/../../../../../H-x86_64-mingw32/nios2-elf/lib\libc.a(lib_a-memchr.o)
 .debug_aranges
                0x00000000000001b8       0x20 c:/intelfpga_lite/18.1/nios2eds/bin/gnu/h-x86_64-mingw32/bin/../lib/gcc/nios2-elf/5.3.0/../../../../../H-x86_64-mingw32/nios2-elf/lib\libc.a(lib_a-memcpy.o)
 .debug_aranges
                0x00000000000001d8       0x20 c:/intelfpga_lite/18.1/nios2eds/bin/gnu/h-x86_64-mingw32/bin/../lib/gcc/nios2-elf/5.3.0/../../../../../H-x86_64-mingw32/nios2-elf/lib\libc.a(lib_a-memmove.o)
 .debug_aranges
                0x00000000000001f8       0x20 c:/intelfpga_lite/18.1/nios2eds/bin/gnu/h-x86_64-mingw32/bin/../lib/gcc/nios2-elf/5.3.0/../../../../../H-x86_64-mingw32/nios2-elf/lib\libc.a(lib_a-memset.o)
 .debug_aranges
                0x0000000000000218       0x20 c:/intelfpga_lite/18.1/nios2eds/bin/gnu/h-x86_64-mingw32/bin/../lib/gcc/nios2-elf/5.3.0/../../../../../H-x86_64-mingw32/nios2-elf/lib\libc.a(lib_a-reallocr.o)
 .debug_aranges
                0x0000000000000238       0x20 c:/intelfpga_lite/18.1/nios2eds/bin/gnu/h-x86_64-mingw32/bin/../lib/gcc/nios2-elf/5.3.0/../../../../../H-x86_64-mingw32/nios2-elf/lib\libc.a(lib_a-sbrkr.o)
 .debug_aranges
                0x0000000000000258       0x40 c:/intelfpga_lite/18.1/nios2eds/bin/gnu/h-x86_64-mingw32/bin/../lib/gcc/nios2-elf/5.3.0/../../../../../H-x86_64-mingw32/nios2-elf/lib\libc.a(lib_a-stdio.o)
 .debug_aranges
                0x0000000000000298       0x20 c:/intelfpga_lite/18.1/nios2eds/bin/gnu/h-x86_64-mingw32/bin/../lib/gcc/nios2-elf/5.3.0/../../../../../H-x86_64-mingw32/nios2-elf/lib\libc.a(lib_a-writer.o)
 .debug_aranges
                0x00000000000002b8       0x20 c:/intelfpga_lite/18.1/nios2eds/bin/gnu/h-x86_64-mingw32/bin/../lib/gcc/nios2-elf/5.3.0/../../../../../H-x86_64-mingw32/nios2-elf/lib\libc.a(lib_a-wsetup.o)
 .debug_aranges
                0x00000000000002d8       0x20 c:/intelfpga_lite/18.1/nios2eds/bin/gnu/h-x86_64-mingw32/bin/../lib/gcc/nios2-elf/5.3.0/../../../../../H-x86_64-mingw32/nios2-elf/lib\libc.a(closer.o)
 .debug_aranges
                0x00000000000002f8       0x28 c:/intelfpga_lite/18.1/nios2eds/bin/gnu/h-x86_64-mingw32/bin/../lib/gcc/nios2-elf/5.3.0/../../../../../H-x86_64-mingw32/nios2-elf/lib\libc.a(lib_a-fclose.o)
 .debug_aranges
                0x0000000000000320       0x30 c:/intelfpga_lite/18.1/nios2eds/bin/gnu/h-x86_64-mingw32/bin/../lib/gcc/nios2-elf/5.3.0/../../../../../H-x86_64-mingw32/nios2-elf/lib\libc.a(lib_a-fflush.o)
 .debug_aranges
                0x0000000000000350       0x28 c:/intelfpga_lite/18.1/nios2eds/bin/gnu/h-x86_64-mingw32/bin/../lib/gcc/nios2-elf/5.3.0/../../../../../H-x86_64-mingw32/nios2-elf/lib\libc.a(lib_a-freer.o)
 .debug_aranges
                0x0000000000000378       0x18 c:/intelfpga_lite/18.1/nios2eds/bin/gnu/h-x86_64-mingw32/bin/../lib/gcc/nios2-elf/5.3.0/../../../../../H-x86_64-mingw32/nios2-elf/lib\libc.a(lib_a-int_errno.o)
 .debug_aranges
                0x0000000000000390       0x20 c:/intelfpga_lite/18.1/nios2eds/bin/gnu/h-x86_64-mingw32/bin/../lib/gcc/nios2-elf/5.3.0/../../../../../H-x86_64-mingw32/nios2-elf/lib\libc.a(lib_a-lseekr.o)
 .debug_aranges
                0x00000000000003b0       0x20 c:/intelfpga_lite/18.1/nios2eds/bin/gnu/h-x86_64-mingw32/bin/../lib/gcc/nios2-elf/5.3.0/../../../../../H-x86_64-mingw32/nios2-elf/lib\libc.a(lib_a-makebuf.o)
 .debug_aranges
                0x00000000000003d0       0x20 c:/intelfpga_lite/18.1/nios2eds/bin/gnu/h-x86_64-mingw32/bin/../lib/gcc/nios2-elf/5.3.0/../../../../../H-x86_64-mingw32/nios2-elf/lib\libc.a(lib_a-readr.o)
 .debug_aranges
                0x00000000000003f0       0x20 c:/intelfpga_lite/18.1/nios2eds/bin/gnu/h-x86_64-mingw32/bin/../lib/gcc/nios2-elf/5.3.0/../../../../../H-x86_64-mingw32/nios2-elf/lib\libc.a(lib_a-fstatr.o)
 .debug_aranges
                0x0000000000000410       0x20 c:/intelfpga_lite/18.1/nios2eds/bin/gnu/h-x86_64-mingw32/bin/../lib/gcc/nios2-elf/5.3.0/../../../../../H-x86_64-mingw32/nios2-elf/lib\libc.a(lib_a-isattyr.o)
 .debug_aranges
                0x0000000000000430       0x20 ../RTOS_bsp/\libucosii_bsp.a(alt_close.o)
 .debug_aranges
                0x0000000000000450       0x20 ../RTOS_bsp/\libucosii_bsp.a(alt_dev.o)
 .debug_aranges
                0x0000000000000470       0x18 ../RTOS_bsp/\libucosii_bsp.a(alt_errno.o)
 .debug_aranges
                0x0000000000000488       0x20 ../RTOS_bsp/\libucosii_bsp.a(alt_fstat.o)
 .debug_aranges
                0x00000000000004a8       0x20 ../RTOS_bsp/\libucosii_bsp.a(alt_isatty.o)
 .debug_aranges
                0x00000000000004c8       0x20 ../RTOS_bsp/\libucosii_bsp.a(alt_load.o)
 .debug_aranges
                0x00000000000004e8       0x20 ../RTOS_bsp/\libucosii_bsp.a(alt_lseek.o)
 .debug_aranges
                0x0000000000000508       0x20 ../RTOS_bsp/\libucosii_bsp.a(alt_main.o)
 .debug_aranges
                0x0000000000000528       0x20 ../RTOS_bsp/\libucosii_bsp.a(alt_putchar.o)
 .debug_aranges
                0x0000000000000548       0x20 ../RTOS_bsp/\libucosii_bsp.a(alt_putstr.o)
 .debug_aranges
                0x0000000000000568       0x20 ../RTOS_bsp/\libucosii_bsp.a(alt_read.o)
 .debug_aranges
                0x0000000000000588       0x20 ../RTOS_bsp/\libucosii_bsp.a(alt_release_fd.o)
 .debug_aranges
                0x00000000000005a8       0x20 ../RTOS_bsp/\libucosii_bsp.a(alt_sbrk.o)
 .debug_aranges
                0x00000000000005c8       0x20 ../RTOS_bsp/\libucosii_bsp.a(alt_write.o)
 .debug_aranges
                0x00000000000005e8       0x20 ../RTOS_bsp/\libucosii_bsp.a(alt_env_lock.o)
 .debug_aranges
                0x0000000000000608       0x20 ../RTOS_bsp/\libucosii_bsp.a(alt_malloc_lock.o)
 .debug_aranges
                0x0000000000000628       0x20 ../RTOS_bsp/\libucosii_bsp.a(os_core.o)
 .debug_aranges
                0x0000000000000648       0x20 ../RTOS_bsp/\libucosii_bsp.a(os_dbg.o)
 .debug_aranges
                0x0000000000000668       0x20 ../RTOS_bsp/\libucosii_bsp.a(os_flag.o)
 .debug_aranges
                0x0000000000000688       0x20 ../RTOS_bsp/\libucosii_bsp.a(os_mem.o)
 .debug_aranges
                0x00000000000006a8       0x20 ../RTOS_bsp/\libucosii_bsp.a(os_q.o)
 .debug_aranges
                0x00000000000006c8       0x20 ../RTOS_bsp/\libucosii_bsp.a(os_sem.o)
 .debug_aranges
                0x00000000000006e8       0x20 ../RTOS_bsp/\libucosii_bsp.a(os_task.o)
 .debug_aranges
                0x0000000000000708       0x20 ../RTOS_bsp/\libucosii_bsp.a(os_time.o)
 .debug_aranges
                0x0000000000000728       0x20 ../RTOS_bsp/\libucosii_bsp.a(alt_sys_init.o)
 .debug_aranges
                0x0000000000000748       0x20 ../RTOS_bsp/\libucosii_bsp.a(altera_avalon_jtag_uart_fd.o)
 .debug_aranges
                0x0000000000000768       0x20 ../RTOS_bsp/\libucosii_bsp.a(altera_avalon_jtag_uart_init.o)
 .debug_aranges
                0x0000000000000788       0x20 ../RTOS_bsp/\libucosii_bsp.a(altera_avalon_jtag_uart_ioctl.o)
 .debug_aranges
                0x00000000000007a8       0x20 ../RTOS_bsp/\libucosii_bsp.a(altera_avalon_jtag_uart_read.o)
 .debug_aranges
                0x00000000000007c8       0x20 ../RTOS_bsp/\libucosii_bsp.a(altera_avalon_jtag_uart_write.o)
 .debug_aranges
                0x00000000000007e8       0x20 ../RTOS_bsp/\libucosii_bsp.a(altera_avalon_timer_sc.o)
 .debug_aranges
                0x0000000000000808       0x20 ../RTOS_bsp/\libucosii_bsp.a(altera_avalon_uart_fd.o)
 .debug_aranges
                0x0000000000000828       0x20 ../RTOS_bsp/\libucosii_bsp.a(altera_avalon_uart_init.o)
 .debug_aranges
                0x0000000000000848       0x20 ../RTOS_bsp/\libucosii_bsp.a(altera_avalon_uart_read.o)
 .debug_aranges
                0x0000000000000868       0x20 ../RTOS_bsp/\libucosii_bsp.a(altera_avalon_uart_write.o)
 .debug_aranges
                0x0000000000000888       0x20 ../RTOS_bsp/\libucosii_bsp.a(alt_alarm_start.o)
 .debug_aranges
                0x00000000000008a8       0x20 ../RTOS_bsp/\libucosii_bsp.a(alt_dcache_flush_all.o)
 .debug_aranges
                0x00000000000008c8       0x20 ../RTOS_bsp/\libucosii_bsp.a(alt_dev_llist_insert.o)
 .debug_aranges
                0x00000000000008e8       0x20 ../RTOS_bsp/\libucosii_bsp.a(alt_do_ctors.o)
 .debug_aranges
                0x0000000000000908       0x20 ../RTOS_bsp/\libucosii_bsp.a(alt_do_dtors.o)
 .debug_aranges
                0x0000000000000928       0x20 ../RTOS_bsp/\libucosii_bsp.a(alt_icache_flush_all.o)
 .debug_aranges
                0x0000000000000948       0x20 ../RTOS_bsp/\libucosii_bsp.a(alt_iic.o)
 .debug_aranges
                0x0000000000000968       0x20 ../RTOS_bsp/\libucosii_bsp.a(alt_iic_isr_register.o)
 .debug_aranges
                0x0000000000000988       0x20 ../RTOS_bsp/\libucosii_bsp.a(alt_io_redirect.o)
 .debug_aranges
                0x00000000000009a8       0x30 ../RTOS_bsp/\libucosii_bsp.a(alt_irq_entry.o)
 .debug_aranges
                0x00000000000009d8       0x20 ../RTOS_bsp/\libucosii_bsp.a(alt_irq_handler.o)
 .debug_aranges
                0x00000000000009f8       0x18 ../RTOS_bsp/\libucosii_bsp.a(alt_irq_vars.o)
 .debug_aranges
                0x0000000000000a10       0x20 ../RTOS_bsp/\libucosii_bsp.a(alt_open.o)
 .debug_aranges
                0x0000000000000a30       0x20 ../RTOS_bsp/\libucosii_bsp.a(alt_tick.o)
 .debug_aranges
                0x0000000000000a50       0x20 ../RTOS_bsp/\libucosii_bsp.a(altera_nios2_gen2_irq.o)
 .debug_aranges
                0x0000000000000a70       0x20 ../RTOS_bsp/\libucosii_bsp.a(os_cpu_a.o)
 .debug_aranges
                0x0000000000000a90       0x20 ../RTOS_bsp/\libucosii_bsp.a(os_cpu_c.o)
 .debug_aranges
                0x0000000000000ab0       0x38 ../RTOS_bsp/\libucosii_bsp.a(alt_exception_entry.o)
 .debug_aranges
                0x0000000000000ae8       0x20 ../RTOS_bsp/\libucosii_bsp.a(alt_find_dev.o)
 .debug_aranges
                0x0000000000000b08       0x20 ../RTOS_bsp/\libucosii_bsp.a(alt_find_file.o)
 .debug_aranges
                0x0000000000000b28       0x20 ../RTOS_bsp/\libucosii_bsp.a(alt_get_fd.o)
 .debug_aranges
                0x0000000000000b48       0x20 ../RTOS_bsp/\libucosii_bsp.a(alt_icache_flush.o)
 .debug_aranges
                0x0000000000000b68       0x28 ../RTOS_bsp/\libucosii_bsp.a(alt_instruction_exception_entry.o)
 .debug_aranges
                0x0000000000000b90       0x20 c:/intelfpga_lite/18.1/nios2eds/bin/gnu/h-x86_64-mingw32/bin/../lib/gcc/nios2-elf/5.3.0/../../../../../H-x86_64-mingw32/nios2-elf/lib\libc.a(lib_a-atexit.o)
 .debug_aranges
                0x0000000000000bb0       0x20 c:/intelfpga_lite/18.1/nios2eds/bin/gnu/h-x86_64-mingw32/bin/../lib/gcc/nios2-elf/5.3.0/../../../../../H-x86_64-mingw32/nios2-elf/lib\libc.a(lib_a-exit.o)
 .debug_aranges
                0x0000000000000bd0       0x28 c:/intelfpga_lite/18.1/nios2eds/bin/gnu/h-x86_64-mingw32/bin/../lib/gcc/nios2-elf/5.3.0/../../../../../H-x86_64-mingw32/nios2-elf/lib\libc.a(lib_a-fputs.o)
 .debug_aranges
                0x0000000000000bf8       0x20 c:/intelfpga_lite/18.1/nios2eds/bin/gnu/h-x86_64-mingw32/bin/../lib/gcc/nios2-elf/5.3.0/../../../../../H-x86_64-mingw32/nios2-elf/lib\libc.a(lib_a-memcmp.o)
 .debug_aranges
                0x0000000000000c18       0x28 c:/intelfpga_lite/18.1/nios2eds/bin/gnu/h-x86_64-mingw32/bin/../lib/gcc/nios2-elf/5.3.0/../../../../../H-x86_64-mingw32/nios2-elf/lib\libc.a(lib_a-putc.o)
 .debug_aranges
                0x0000000000000c40       0x28 c:/intelfpga_lite/18.1/nios2eds/bin/gnu/h-x86_64-mingw32/bin/../lib/gcc/nios2-elf/5.3.0/../../../../../H-x86_64-mingw32/nios2-elf/lib\libc.a(lib_a-wbuf.o)
 .debug_aranges
                0x0000000000000c68       0x20 c:/intelfpga_lite/18.1/nios2eds/bin/gnu/h-x86_64-mingw32/bin/../lib/gcc/nios2-elf/5.3.0/../../../../../H-x86_64-mingw32/nios2-elf/lib\libc.a(lib_a-__atexit.o)
 .debug_aranges
                0x0000000000000c88       0x20 c:/intelfpga_lite/18.1/nios2eds/bin/gnu/h-x86_64-mingw32/bin/../lib/gcc/nios2-elf/5.3.0/../../../../../H-x86_64-mingw32/nios2-elf/lib\libc.a(lib_a-__call_atexit.o)
 .debug_aranges
                0x0000000000000ca8       0x20 ../RTOS_bsp/\libucosii_bsp.a(alt_exit.o)

.debug_pubnames
 *(.debug_pubnames)

.debug_info     0x0000000000000000    0x24367
 *(.debug_info .gnu.linkonce.wi.*)
 .debug_info    0x0000000000000000       0x78 ../RTOS_bsp//obj/HAL/src/crt0.o
 .debug_info    0x0000000000000078      0x22b obj/default/hello_ucosii.o
 .debug_info    0x00000000000002a3      0x2c6 c:/intelfpga_lite/18.1/nios2eds/bin/gnu/h-x86_64-mingw32/bin/../lib/gcc/nios2-elf/5.3.0\libgcc.a(lib2-divmod.o)
 .debug_info    0x0000000000000569      0xa38 c:/intelfpga_lite/18.1/nios2eds/bin/gnu/h-x86_64-mingw32/bin/../lib/gcc/nios2-elf/5.3.0/../../../../../H-x86_64-mingw32/nios2-elf/lib\libc.a(lib_a-puts.o)
 .debug_info    0x0000000000000fa1       0xe2 c:/intelfpga_lite/18.1/nios2eds/bin/gnu/h-x86_64-mingw32/bin/../lib/gcc/nios2-elf/5.3.0/../../../../../H-x86_64-mingw32/nios2-elf/lib\libc.a(lib_a-strlen.o)
 .debug_info    0x0000000000001083      0xd37 c:/intelfpga_lite/18.1/nios2eds/bin/gnu/h-x86_64-mingw32/bin/../lib/gcc/nios2-elf/5.3.0/../../../../../H-x86_64-mingw32/nios2-elf/lib\libc.a(lib_a-findfp.o)
 .debug_info    0x0000000000001dba      0xbb8 c:/intelfpga_lite/18.1/nios2eds/bin/gnu/h-x86_64-mingw32/bin/../lib/gcc/nios2-elf/5.3.0/../../../../../H-x86_64-mingw32/nios2-elf/lib\libc.a(lib_a-fvwrite.o)
 .debug_info    0x0000000000002972      0x9b0 c:/intelfpga_lite/18.1/nios2eds/bin/gnu/h-x86_64-mingw32/bin/../lib/gcc/nios2-elf/5.3.0/../../../../../H-x86_64-mingw32/nios2-elf/lib\libc.a(lib_a-fwalk.o)
 .debug_info    0x0000000000003322      0x8a1 c:/intelfpga_lite/18.1/nios2eds/bin/gnu/h-x86_64-mingw32/bin/../lib/gcc/nios2-elf/5.3.0/../../../../../H-x86_64-mingw32/nios2-elf/lib\libc.a(lib_a-impure.o)
 .debug_info    0x0000000000003bc3      0xd57 c:/intelfpga_lite/18.1/nios2eds/bin/gnu/h-x86_64-mingw32/bin/../lib/gcc/nios2-elf/5.3.0/../../../../../H-x86_64-mingw32/nios2-elf/lib\libc.a(lib_a-mallocr.o)
 .debug_info    0x000000000000491a      0x132 c:/intelfpga_lite/18.1/nios2eds/bin/gnu/h-x86_64-mingw32/bin/../lib/gcc/nios2-elf/5.3.0/../../../../../H-x86_64-mingw32/nios2-elf/lib\libc.a(lib_a-memchr.o)
 .debug_info    0x0000000000004a4c      0x144 c:/intelfpga_lite/18.1/nios2eds/bin/gnu/h-x86_64-mingw32/bin/../lib/gcc/nios2-elf/5.3.0/../../../../../H-x86_64-mingw32/nios2-elf/lib\libc.a(lib_a-memcpy.o)
 .debug_info    0x0000000000004b90      0x13a c:/intelfpga_lite/18.1/nios2eds/bin/gnu/h-x86_64-mingw32/bin/../lib/gcc/nios2-elf/5.3.0/../../../../../H-x86_64-mingw32/nios2-elf/lib\libc.a(lib_a-memmove.o)
 .debug_info    0x0000000000004cca      0x121 c:/intelfpga_lite/18.1/nios2eds/bin/gnu/h-x86_64-mingw32/bin/../lib/gcc/nios2-elf/5.3.0/../../../../../H-x86_64-mingw32/nios2-elf/lib\libc.a(lib_a-memset.o)
 .debug_info    0x0000000000004deb      0xc6b c:/intelfpga_lite/18.1/nios2eds/bin/gnu/h-x86_64-mingw32/bin/../lib/gcc/nios2-elf/5.3.0/../../../../../H-x86_64-mingw32/nios2-elf/lib\libc.a(lib_a-reallocr.o)
 .debug_info    0x0000000000005a56      0x900 c:/intelfpga_lite/18.1/nios2eds/bin/gnu/h-x86_64-mingw32/bin/../lib/gcc/nios2-elf/5.3.0/../../../../../H-x86_64-mingw32/nios2-elf/lib\libc.a(lib_a-sbrkr.o)
 .debug_info    0x0000000000006356      0xb32 c:/intelfpga_lite/18.1/nios2eds/bin/gnu/h-x86_64-mingw32/bin/../lib/gcc/nios2-elf/5.3.0/../../../../../H-x86_64-mingw32/nios2-elf/lib\libc.a(lib_a-stdio.o)
 .debug_info    0x0000000000006e88      0x928 c:/intelfpga_lite/18.1/nios2eds/bin/gnu/h-x86_64-mingw32/bin/../lib/gcc/nios2-elf/5.3.0/../../../../../H-x86_64-mingw32/nios2-elf/lib\libc.a(lib_a-writer.o)
 .debug_info    0x00000000000077b0      0x936 c:/intelfpga_lite/18.1/nios2eds/bin/gnu/h-x86_64-mingw32/bin/../lib/gcc/nios2-elf/5.3.0/../../../../../H-x86_64-mingw32/nios2-elf/lib\libc.a(lib_a-wsetup.o)
 .debug_info    0x00000000000080e6      0x8df c:/intelfpga_lite/18.1/nios2eds/bin/gnu/h-x86_64-mingw32/bin/../lib/gcc/nios2-elf/5.3.0/../../../../../H-x86_64-mingw32/nios2-elf/lib\libc.a(closer.o)
 .debug_info    0x00000000000089c5      0xa23 c:/intelfpga_lite/18.1/nios2eds/bin/gnu/h-x86_64-mingw32/bin/../lib/gcc/nios2-elf/5.3.0/../../../../../H-x86_64-mingw32/nios2-elf/lib\libc.a(lib_a-fclose.o)
 .debug_info    0x00000000000093e8      0xa93 c:/intelfpga_lite/18.1/nios2eds/bin/gnu/h-x86_64-mingw32/bin/../lib/gcc/nios2-elf/5.3.0/../../../../../H-x86_64-mingw32/nios2-elf/lib\libc.a(lib_a-fflush.o)
 .debug_info    0x0000000000009e7b      0xbf7 c:/intelfpga_lite/18.1/nios2eds/bin/gnu/h-x86_64-mingw32/bin/../lib/gcc/nios2-elf/5.3.0/../../../../../H-x86_64-mingw32/nios2-elf/lib\libc.a(lib_a-freer.o)
 .debug_info    0x000000000000aa72       0x8a c:/intelfpga_lite/18.1/nios2eds/bin/gnu/h-x86_64-mingw32/bin/../lib/gcc/nios2-elf/5.3.0/../../../../../H-x86_64-mingw32/nios2-elf/lib\libc.a(lib_a-int_errno.o)
 .debug_info    0x000000000000aafc      0x90b c:/intelfpga_lite/18.1/nios2eds/bin/gnu/h-x86_64-mingw32/bin/../lib/gcc/nios2-elf/5.3.0/../../../../../H-x86_64-mingw32/nios2-elf/lib\libc.a(lib_a-lseekr.o)
 .debug_info    0x000000000000b407      0xad8 c:/intelfpga_lite/18.1/nios2eds/bin/gnu/h-x86_64-mingw32/bin/../lib/gcc/nios2-elf/5.3.0/../../../../../H-x86_64-mingw32/nios2-elf/lib\libc.a(lib_a-makebuf.o)
 .debug_info    0x000000000000bedf      0x921 c:/intelfpga_lite/18.1/nios2eds/bin/gnu/h-x86_64-mingw32/bin/../lib/gcc/nios2-elf/5.3.0/../../../../../H-x86_64-mingw32/nios2-elf/lib\libc.a(lib_a-readr.o)
 .debug_info    0x000000000000c800      0xa5d c:/intelfpga_lite/18.1/nios2eds/bin/gnu/h-x86_64-mingw32/bin/../lib/gcc/nios2-elf/5.3.0/../../../../../H-x86_64-mingw32/nios2-elf/lib\libc.a(lib_a-fstatr.o)
 .debug_info    0x000000000000d25d      0x8df c:/intelfpga_lite/18.1/nios2eds/bin/gnu/h-x86_64-mingw32/bin/../lib/gcc/nios2-elf/5.3.0/../../../../../H-x86_64-mingw32/nios2-elf/lib\libc.a(lib_a-isattyr.o)
 .debug_info    0x000000000000db3c      0x355 ../RTOS_bsp/\libucosii_bsp.a(alt_close.o)
 .debug_info    0x000000000000de91      0x585 ../RTOS_bsp/\libucosii_bsp.a(alt_dev.o)
 .debug_info    0x000000000000e416       0xa6 ../RTOS_bsp/\libucosii_bsp.a(alt_errno.o)
 .debug_info    0x000000000000e4bc      0x4bc ../RTOS_bsp/\libucosii_bsp.a(alt_fstat.o)
 .debug_info    0x000000000000e978      0x4bf ../RTOS_bsp/\libucosii_bsp.a(alt_isatty.o)
 .debug_info    0x000000000000ee37      0x145 ../RTOS_bsp/\libucosii_bsp.a(alt_load.o)
 .debug_info    0x000000000000ef7c      0x386 ../RTOS_bsp/\libucosii_bsp.a(alt_lseek.o)
 .debug_info    0x000000000000f302      0x26d ../RTOS_bsp/\libucosii_bsp.a(alt_main.o)
 .debug_info    0x000000000000f56f      0x8a6 ../RTOS_bsp/\libucosii_bsp.a(alt_putchar.o)
 .debug_info    0x000000000000fe15      0x8a8 ../RTOS_bsp/\libucosii_bsp.a(alt_putstr.o)
 .debug_info    0x00000000000106bd      0x4e4 ../RTOS_bsp/\libucosii_bsp.a(alt_read.o)
 .debug_info    0x0000000000010ba1      0x2f9 ../RTOS_bsp/\libucosii_bsp.a(alt_release_fd.o)
 .debug_info    0x0000000000010e9a      0x1ac ../RTOS_bsp/\libucosii_bsp.a(alt_sbrk.o)
 .debug_info    0x0000000000011046      0x4eb ../RTOS_bsp/\libucosii_bsp.a(alt_write.o)
 .debug_info    0x0000000000011531      0xc67 ../RTOS_bsp/\libucosii_bsp.a(alt_env_lock.o)
 .debug_info    0x0000000000012198      0xdad ../RTOS_bsp/\libucosii_bsp.a(alt_malloc_lock.o)
 .debug_info    0x0000000000012f45     0x15b9 ../RTOS_bsp/\libucosii_bsp.a(os_core.o)
 .debug_info    0x00000000000144fe      0xaa8 ../RTOS_bsp/\libucosii_bsp.a(os_dbg.o)
 .debug_info    0x0000000000014fa6      0xf9c ../RTOS_bsp/\libucosii_bsp.a(os_flag.o)
 .debug_info    0x0000000000015f42      0x67a ../RTOS_bsp/\libucosii_bsp.a(os_mem.o)
 .debug_info    0x00000000000165bc      0xda3 ../RTOS_bsp/\libucosii_bsp.a(os_q.o)
 .debug_info    0x000000000001735f      0xa04 ../RTOS_bsp/\libucosii_bsp.a(os_sem.o)
 .debug_info    0x0000000000017d63     0x1117 ../RTOS_bsp/\libucosii_bsp.a(os_task.o)
 .debug_info    0x0000000000018e7a      0x6e9 ../RTOS_bsp/\libucosii_bsp.a(os_time.o)
 .debug_info    0x0000000000019563      0x729 ../RTOS_bsp/\libucosii_bsp.a(alt_sys_init.o)
 .debug_info    0x0000000000019c8c      0x67b ../RTOS_bsp/\libucosii_bsp.a(altera_avalon_jtag_uart_fd.o)
 .debug_info    0x000000000001a307      0x6b3 ../RTOS_bsp/\libucosii_bsp.a(altera_avalon_jtag_uart_init.o)
 .debug_info    0x000000000001a9ba      0x3cd ../RTOS_bsp/\libucosii_bsp.a(altera_avalon_jtag_uart_ioctl.o)
 .debug_info    0x000000000001ad87      0x57a ../RTOS_bsp/\libucosii_bsp.a(altera_avalon_jtag_uart_read.o)
 .debug_info    0x000000000001b301      0x579 ../RTOS_bsp/\libucosii_bsp.a(altera_avalon_jtag_uart_write.o)
 .debug_info    0x000000000001b87a      0x226 ../RTOS_bsp/\libucosii_bsp.a(altera_avalon_timer_sc.o)
 .debug_info    0x000000000001baa0      0x5aa ../RTOS_bsp/\libucosii_bsp.a(altera_avalon_uart_fd.o)
 .debug_info    0x000000000001c04a      0x5ed ../RTOS_bsp/\libucosii_bsp.a(altera_avalon_uart_init.o)
 .debug_info    0x000000000001c637      0x569 ../RTOS_bsp/\libucosii_bsp.a(altera_avalon_uart_read.o)
 .debug_info    0x000000000001cba0      0x56e ../RTOS_bsp/\libucosii_bsp.a(altera_avalon_uart_write.o)
 .debug_info    0x000000000001d10e      0x2cc ../RTOS_bsp/\libucosii_bsp.a(alt_alarm_start.o)
 .debug_info    0x000000000001d3da       0xa5 ../RTOS_bsp/\libucosii_bsp.a(alt_dcache_flush_all.o)
 .debug_info    0x000000000001d47f      0x1a9 ../RTOS_bsp/\libucosii_bsp.a(alt_dev_llist_insert.o)
 .debug_info    0x000000000001d628       0x83 ../RTOS_bsp/\libucosii_bsp.a(alt_do_ctors.o)
 .debug_info    0x000000000001d6ab       0x83 ../RTOS_bsp/\libucosii_bsp.a(alt_do_dtors.o)
 .debug_info    0x000000000001d72e       0x92 ../RTOS_bsp/\libucosii_bsp.a(alt_icache_flush_all.o)
 .debug_info    0x000000000001d7c0      0x350 ../RTOS_bsp/\libucosii_bsp.a(alt_iic.o)
 .debug_info    0x000000000001db10      0x1ef ../RTOS_bsp/\libucosii_bsp.a(alt_iic_isr_register.o)
 .debug_info    0x000000000001dcff      0x4d9 ../RTOS_bsp/\libucosii_bsp.a(alt_io_redirect.o)
 .debug_info    0x000000000001e1d8       0x81 ../RTOS_bsp/\libucosii_bsp.a(alt_irq_entry.o)
 .debug_info    0x000000000001e259      0x1b0 ../RTOS_bsp/\libucosii_bsp.a(alt_irq_handler.o)
 .debug_info    0x000000000001e409       0x88 ../RTOS_bsp/\libucosii_bsp.a(alt_irq_vars.o)
 .debug_info    0x000000000001e491      0x3e4 ../RTOS_bsp/\libucosii_bsp.a(alt_open.o)
 .debug_info    0x000000000001e875      0x2a7 ../RTOS_bsp/\libucosii_bsp.a(alt_tick.o)
 .debug_info    0x000000000001eb1c       0x92 ../RTOS_bsp/\libucosii_bsp.a(altera_nios2_gen2_irq.o)
 .debug_info    0x000000000001ebae       0x80 ../RTOS_bsp/\libucosii_bsp.a(os_cpu_a.o)
 .debug_info    0x000000000001ec2e      0xcea ../RTOS_bsp/\libucosii_bsp.a(os_cpu_c.o)
 .debug_info    0x000000000001f918       0x87 ../RTOS_bsp/\libucosii_bsp.a(alt_exception_entry.o)
 .debug_info    0x000000000001f99f      0x31d ../RTOS_bsp/\libucosii_bsp.a(alt_find_dev.o)
 .debug_info    0x000000000001fcbc      0x31a ../RTOS_bsp/\libucosii_bsp.a(alt_find_file.o)
 .debug_info    0x000000000001ffd6      0x44b ../RTOS_bsp/\libucosii_bsp.a(alt_get_fd.o)
 .debug_info    0x0000000000020421       0xdc ../RTOS_bsp/\libucosii_bsp.a(alt_icache_flush.o)
 .debug_info    0x00000000000204fd      0x1e7 ../RTOS_bsp/\libucosii_bsp.a(alt_instruction_exception_entry.o)
 .debug_info    0x00000000000206e4       0xfe c:/intelfpga_lite/18.1/nios2eds/bin/gnu/h-x86_64-mingw32/bin/../lib/gcc/nios2-elf/5.3.0/../../../../../H-x86_64-mingw32/nios2-elf/lib\libc.a(lib_a-atexit.o)
 .debug_info    0x00000000000207e2      0x8e4 c:/intelfpga_lite/18.1/nios2eds/bin/gnu/h-x86_64-mingw32/bin/../lib/gcc/nios2-elf/5.3.0/../../../../../H-x86_64-mingw32/nios2-elf/lib\libc.a(lib_a-exit.o)
 .debug_info    0x00000000000210c6      0xa41 c:/intelfpga_lite/18.1/nios2eds/bin/gnu/h-x86_64-mingw32/bin/../lib/gcc/nios2-elf/5.3.0/../../../../../H-x86_64-mingw32/nios2-elf/lib\libc.a(lib_a-fputs.o)
 .debug_info    0x0000000000021b07      0x11a c:/intelfpga_lite/18.1/nios2eds/bin/gnu/h-x86_64-mingw32/bin/../lib/gcc/nios2-elf/5.3.0/../../../../../H-x86_64-mingw32/nios2-elf/lib\libc.a(lib_a-memcmp.o)
 .debug_info    0x0000000000021c21      0x9b4 c:/intelfpga_lite/18.1/nios2eds/bin/gnu/h-x86_64-mingw32/bin/../lib/gcc/nios2-elf/5.3.0/../../../../../H-x86_64-mingw32/nios2-elf/lib\libc.a(lib_a-putc.o)
 .debug_info    0x00000000000225d5      0x9be c:/intelfpga_lite/18.1/nios2eds/bin/gnu/h-x86_64-mingw32/bin/../lib/gcc/nios2-elf/5.3.0/../../../../../H-x86_64-mingw32/nios2-elf/lib\libc.a(lib_a-wbuf.o)
 .debug_info    0x0000000000022f93      0x934 c:/intelfpga_lite/18.1/nios2eds/bin/gnu/h-x86_64-mingw32/bin/../lib/gcc/nios2-elf/5.3.0/../../../../../H-x86_64-mingw32/nios2-elf/lib\libc.a(lib_a-__atexit.o)
 .debug_info    0x00000000000238c7      0x965 c:/intelfpga_lite/18.1/nios2eds/bin/gnu/h-x86_64-mingw32/bin/../lib/gcc/nios2-elf/5.3.0/../../../../../H-x86_64-mingw32/nios2-elf/lib\libc.a(lib_a-__call_atexit.o)
 .debug_info    0x000000000002422c      0x13b ../RTOS_bsp/\libucosii_bsp.a(alt_exit.o)

.debug_abbrev   0x0000000000000000     0x8c63
 *(.debug_abbrev)
 .debug_abbrev  0x0000000000000000       0x12 ../RTOS_bsp//obj/HAL/src/crt0.o
 .debug_abbrev  0x0000000000000012      0x120 obj/default/hello_ucosii.o
 .debug_abbrev  0x0000000000000132      0x10e c:/intelfpga_lite/18.1/nios2eds/bin/gnu/h-x86_64-mingw32/bin/../lib/gcc/nios2-elf/5.3.0\libgcc.a(lib2-divmod.o)
 .debug_abbrev  0x0000000000000240      0x249 c:/intelfpga_lite/18.1/nios2eds/bin/gnu/h-x86_64-mingw32/bin/../lib/gcc/nios2-elf/5.3.0/../../../../../H-x86_64-mingw32/nios2-elf/lib\libc.a(lib_a-puts.o)
 .debug_abbrev  0x0000000000000489       0x90 c:/intelfpga_lite/18.1/nios2eds/bin/gnu/h-x86_64-mingw32/bin/../lib/gcc/nios2-elf/5.3.0/../../../../../H-x86_64-mingw32/nios2-elf/lib\libc.a(lib_a-strlen.o)
 .debug_abbrev  0x0000000000000519      0x391 c:/intelfpga_lite/18.1/nios2eds/bin/gnu/h-x86_64-mingw32/bin/../lib/gcc/nios2-elf/5.3.0/../../../../../H-x86_64-mingw32/nios2-elf/lib\libc.a(lib_a-findfp.o)
 .debug_abbrev  0x00000000000008aa      0x228 c:/intelfpga_lite/18.1/nios2eds/bin/gnu/h-x86_64-mingw32/bin/../lib/gcc/nios2-elf/5.3.0/../../../../../H-x86_64-mingw32/nios2-elf/lib\libc.a(lib_a-fvwrite.o)
 .debug_abbrev  0x0000000000000ad2      0x1d1 c:/intelfpga_lite/18.1/nios2eds/bin/gnu/h-x86_64-mingw32/bin/../lib/gcc/nios2-elf/5.3.0/../../../../../H-x86_64-mingw32/nios2-elf/lib\libc.a(lib_a-fwalk.o)
 .debug_abbrev  0x0000000000000ca3      0x18f c:/intelfpga_lite/18.1/nios2eds/bin/gnu/h-x86_64-mingw32/bin/../lib/gcc/nios2-elf/5.3.0/../../../../../H-x86_64-mingw32/nios2-elf/lib\libc.a(lib_a-impure.o)
 .debug_abbrev  0x0000000000000e32      0x29d c:/intelfpga_lite/18.1/nios2eds/bin/gnu/h-x86_64-mingw32/bin/../lib/gcc/nios2-elf/5.3.0/../../../../../H-x86_64-mingw32/nios2-elf/lib\libc.a(lib_a-mallocr.o)
 .debug_abbrev  0x00000000000010cf       0xab c:/intelfpga_lite/18.1/nios2eds/bin/gnu/h-x86_64-mingw32/bin/../lib/gcc/nios2-elf/5.3.0/../../../../../H-x86_64-mingw32/nios2-elf/lib\libc.a(lib_a-memchr.o)
 .debug_abbrev  0x000000000000117a       0xa3 c:/intelfpga_lite/18.1/nios2eds/bin/gnu/h-x86_64-mingw32/bin/../lib/gcc/nios2-elf/5.3.0/../../../../../H-x86_64-mingw32/nios2-elf/lib\libc.a(lib_a-memcpy.o)
 .debug_abbrev  0x000000000000121d       0x9c c:/intelfpga_lite/18.1/nios2eds/bin/gnu/h-x86_64-mingw32/bin/../lib/gcc/nios2-elf/5.3.0/../../../../../H-x86_64-mingw32/nios2-elf/lib\libc.a(lib_a-memmove.o)
 .debug_abbrev  0x00000000000012b9       0xae c:/intelfpga_lite/18.1/nios2eds/bin/gnu/h-x86_64-mingw32/bin/../lib/gcc/nios2-elf/5.3.0/../../../../../H-x86_64-mingw32/nios2-elf/lib\libc.a(lib_a-memset.o)
 .debug_abbrev  0x0000000000001367      0x231 c:/intelfpga_lite/18.1/nios2eds/bin/gnu/h-x86_64-mingw32/bin/../lib/gcc/nios2-elf/5.3.0/../../../../../H-x86_64-mingw32/nios2-elf/lib\libc.a(lib_a-reallocr.o)
 .debug_abbrev  0x0000000000001598      0x20a c:/intelfpga_lite/18.1/nios2eds/bin/gnu/h-x86_64-mingw32/bin/../lib/gcc/nios2-elf/5.3.0/../../../../../H-x86_64-mingw32/nios2-elf/lib\libc.a(lib_a-sbrkr.o)
 .debug_abbrev  0x00000000000017a2      0x239 c:/intelfpga_lite/18.1/nios2eds/bin/gnu/h-x86_64-mingw32/bin/../lib/gcc/nios2-elf/5.3.0/../../../../../H-x86_64-mingw32/nios2-elf/lib\libc.a(lib_a-stdio.o)
 .debug_abbrev  0x00000000000019db      0x1eb c:/intelfpga_lite/18.1/nios2eds/bin/gnu/h-x86_64-mingw32/bin/../lib/gcc/nios2-elf/5.3.0/../../../../../H-x86_64-mingw32/nios2-elf/lib\libc.a(lib_a-writer.o)
 .debug_abbrev  0x0000000000001bc6      0x218 c:/intelfpga_lite/18.1/nios2eds/bin/gnu/h-x86_64-mingw32/bin/../lib/gcc/nios2-elf/5.3.0/../../../../../H-x86_64-mingw32/nios2-elf/lib\libc.a(lib_a-wsetup.o)
 .debug_abbrev  0x0000000000001dde      0x1e6 c:/intelfpga_lite/18.1/nios2eds/bin/gnu/h-x86_64-mingw32/bin/../lib/gcc/nios2-elf/5.3.0/../../../../../H-x86_64-mingw32/nios2-elf/lib\libc.a(closer.o)
 .debug_abbrev  0x0000000000001fc4      0x2a2 c:/intelfpga_lite/18.1/nios2eds/bin/gnu/h-x86_64-mingw32/bin/../lib/gcc/nios2-elf/5.3.0/../../../../../H-x86_64-mingw32/nios2-elf/lib\libc.a(lib_a-fclose.o)
 .debug_abbrev  0x0000000000002266      0x2a0 c:/intelfpga_lite/18.1/nios2eds/bin/gnu/h-x86_64-mingw32/bin/../lib/gcc/nios2-elf/5.3.0/../../../../../H-x86_64-mingw32/nios2-elf/lib\libc.a(lib_a-fflush.o)
 .debug_abbrev  0x0000000000002506      0x264 c:/intelfpga_lite/18.1/nios2eds/bin/gnu/h-x86_64-mingw32/bin/../lib/gcc/nios2-elf/5.3.0/../../../../../H-x86_64-mingw32/nios2-elf/lib\libc.a(lib_a-freer.o)
 .debug_abbrev  0x000000000000276a       0x37 c:/intelfpga_lite/18.1/nios2eds/bin/gnu/h-x86_64-mingw32/bin/../lib/gcc/nios2-elf/5.3.0/../../../../../H-x86_64-mingw32/nios2-elf/lib\libc.a(lib_a-int_errno.o)
 .debug_abbrev  0x00000000000027a1      0x1f5 c:/intelfpga_lite/18.1/nios2eds/bin/gnu/h-x86_64-mingw32/bin/../lib/gcc/nios2-elf/5.3.0/../../../../../H-x86_64-mingw32/nios2-elf/lib\libc.a(lib_a-lseekr.o)
 .debug_abbrev  0x0000000000002996      0x20f c:/intelfpga_lite/18.1/nios2eds/bin/gnu/h-x86_64-mingw32/bin/../lib/gcc/nios2-elf/5.3.0/../../../../../H-x86_64-mingw32/nios2-elf/lib\libc.a(lib_a-makebuf.o)
 .debug_abbrev  0x0000000000002ba5      0x1e6 c:/intelfpga_lite/18.1/nios2eds/bin/gnu/h-x86_64-mingw32/bin/../lib/gcc/nios2-elf/5.3.0/../../../../../H-x86_64-mingw32/nios2-elf/lib\libc.a(lib_a-readr.o)
 .debug_abbrev  0x0000000000002d8b      0x1f5 c:/intelfpga_lite/18.1/nios2eds/bin/gnu/h-x86_64-mingw32/bin/../lib/gcc/nios2-elf/5.3.0/../../../../../H-x86_64-mingw32/nios2-elf/lib\libc.a(lib_a-fstatr.o)
 .debug_abbrev  0x0000000000002f80      0x1e6 c:/intelfpga_lite/18.1/nios2eds/bin/gnu/h-x86_64-mingw32/bin/../lib/gcc/nios2-elf/5.3.0/../../../../../H-x86_64-mingw32/nios2-elf/lib\libc.a(lib_a-isattyr.o)
 .debug_abbrev  0x0000000000003166      0x126 ../RTOS_bsp/\libucosii_bsp.a(alt_close.o)
 .debug_abbrev  0x000000000000328c      0x11c ../RTOS_bsp/\libucosii_bsp.a(alt_dev.o)
 .debug_abbrev  0x00000000000033a8       0x5a ../RTOS_bsp/\libucosii_bsp.a(alt_errno.o)
 .debug_abbrev  0x0000000000003402      0x126 ../RTOS_bsp/\libucosii_bsp.a(alt_fstat.o)
 .debug_abbrev  0x0000000000003528      0x126 ../RTOS_bsp/\libucosii_bsp.a(alt_isatty.o)
 .debug_abbrev  0x000000000000364e       0x9f ../RTOS_bsp/\libucosii_bsp.a(alt_load.o)
 .debug_abbrev  0x00000000000036ed      0x126 ../RTOS_bsp/\libucosii_bsp.a(alt_lseek.o)
 .debug_abbrev  0x0000000000003813      0x139 ../RTOS_bsp/\libucosii_bsp.a(alt_main.o)
 .debug_abbrev  0x000000000000394c      0x1af ../RTOS_bsp/\libucosii_bsp.a(alt_putchar.o)
 .debug_abbrev  0x0000000000003afb      0x1af ../RTOS_bsp/\libucosii_bsp.a(alt_putstr.o)
 .debug_abbrev  0x0000000000003caa      0x135 ../RTOS_bsp/\libucosii_bsp.a(alt_read.o)
 .debug_abbrev  0x0000000000003ddf       0xe5 ../RTOS_bsp/\libucosii_bsp.a(alt_release_fd.o)
 .debug_abbrev  0x0000000000003ec4      0x112 ../RTOS_bsp/\libucosii_bsp.a(alt_sbrk.o)
 .debug_abbrev  0x0000000000003fd6      0x13a ../RTOS_bsp/\libucosii_bsp.a(alt_write.o)
 .debug_abbrev  0x0000000000004110      0x1e3 ../RTOS_bsp/\libucosii_bsp.a(alt_env_lock.o)
 .debug_abbrev  0x00000000000042f3      0x26d ../RTOS_bsp/\libucosii_bsp.a(alt_malloc_lock.o)
 .debug_abbrev  0x0000000000004560      0x302 ../RTOS_bsp/\libucosii_bsp.a(os_core.o)
 .debug_abbrev  0x0000000000004862       0xf7 ../RTOS_bsp/\libucosii_bsp.a(os_dbg.o)
 .debug_abbrev  0x0000000000004959      0x25a ../RTOS_bsp/\libucosii_bsp.a(os_flag.o)
 .debug_abbrev  0x0000000000004bb3      0x228 ../RTOS_bsp/\libucosii_bsp.a(os_mem.o)
 .debug_abbrev  0x0000000000004ddb      0x248 ../RTOS_bsp/\libucosii_bsp.a(os_q.o)
 .debug_abbrev  0x0000000000005023      0x262 ../RTOS_bsp/\libucosii_bsp.a(os_sem.o)
 .debug_abbrev  0x0000000000005285      0x247 ../RTOS_bsp/\libucosii_bsp.a(os_task.o)
 .debug_abbrev  0x00000000000054cc      0x20c ../RTOS_bsp/\libucosii_bsp.a(os_time.o)
 .debug_abbrev  0x00000000000056d8      0x1cc ../RTOS_bsp/\libucosii_bsp.a(alt_sys_init.o)
 .debug_abbrev  0x00000000000058a4      0x16c ../RTOS_bsp/\libucosii_bsp.a(altera_avalon_jtag_uart_fd.o)
 .debug_abbrev  0x0000000000005a10      0x24f ../RTOS_bsp/\libucosii_bsp.a(altera_avalon_jtag_uart_init.o)
 .debug_abbrev  0x0000000000005c5f      0x156 ../RTOS_bsp/\libucosii_bsp.a(altera_avalon_jtag_uart_ioctl.o)
 .debug_abbrev  0x0000000000005db5      0x1f8 ../RTOS_bsp/\libucosii_bsp.a(altera_avalon_jtag_uart_read.o)
 .debug_abbrev  0x0000000000005fad      0x1f6 ../RTOS_bsp/\libucosii_bsp.a(altera_avalon_jtag_uart_write.o)
 .debug_abbrev  0x00000000000061a3      0x155 ../RTOS_bsp/\libucosii_bsp.a(altera_avalon_timer_sc.o)
 .debug_abbrev  0x00000000000062f8      0x145 ../RTOS_bsp/\libucosii_bsp.a(altera_avalon_uart_fd.o)
 .debug_abbrev  0x000000000000643d      0x1f1 ../RTOS_bsp/\libucosii_bsp.a(altera_avalon_uart_init.o)
 .debug_abbrev  0x000000000000662e      0x1c8 ../RTOS_bsp/\libucosii_bsp.a(altera_avalon_uart_read.o)
 .debug_abbrev  0x00000000000067f6      0x1cf ../RTOS_bsp/\libucosii_bsp.a(altera_avalon_uart_write.o)
 .debug_abbrev  0x00000000000069c5      0x162 ../RTOS_bsp/\libucosii_bsp.a(alt_alarm_start.o)
 .debug_abbrev  0x0000000000006b27       0x5a ../RTOS_bsp/\libucosii_bsp.a(alt_dcache_flush_all.o)
 .debug_abbrev  0x0000000000006b81      0x114 ../RTOS_bsp/\libucosii_bsp.a(alt_dev_llist_insert.o)
 .debug_abbrev  0x0000000000006c95       0x79 ../RTOS_bsp/\libucosii_bsp.a(alt_do_ctors.o)
 .debug_abbrev  0x0000000000006d0e       0x79 ../RTOS_bsp/\libucosii_bsp.a(alt_do_dtors.o)
 .debug_abbrev  0x0000000000006d87       0x42 ../RTOS_bsp/\libucosii_bsp.a(alt_icache_flush_all.o)
 .debug_abbrev  0x0000000000006dc9      0x163 ../RTOS_bsp/\libucosii_bsp.a(alt_iic.o)
 .debug_abbrev  0x0000000000006f2c      0x169 ../RTOS_bsp/\libucosii_bsp.a(alt_iic_isr_register.o)
 .debug_abbrev  0x0000000000007095      0x11b ../RTOS_bsp/\libucosii_bsp.a(alt_io_redirect.o)
 .debug_abbrev  0x00000000000071b0       0x12 ../RTOS_bsp/\libucosii_bsp.a(alt_irq_entry.o)
 .debug_abbrev  0x00000000000071c2      0x13a ../RTOS_bsp/\libucosii_bsp.a(alt_irq_handler.o)
 .debug_abbrev  0x00000000000072fc       0x40 ../RTOS_bsp/\libucosii_bsp.a(alt_irq_vars.o)
 .debug_abbrev  0x000000000000733c      0x14f ../RTOS_bsp/\libucosii_bsp.a(alt_open.o)
 .debug_abbrev  0x000000000000748b      0x15a ../RTOS_bsp/\libucosii_bsp.a(alt_tick.o)
 .debug_abbrev  0x00000000000075e5       0x42 ../RTOS_bsp/\libucosii_bsp.a(altera_nios2_gen2_irq.o)
 .debug_abbrev  0x0000000000007627       0x14 ../RTOS_bsp/\libucosii_bsp.a(os_cpu_a.o)
 .debug_abbrev  0x000000000000763b      0x215 ../RTOS_bsp/\libucosii_bsp.a(os_cpu_c.o)
 .debug_abbrev  0x0000000000007850       0x12 ../RTOS_bsp/\libucosii_bsp.a(alt_exception_entry.o)
 .debug_abbrev  0x0000000000007862       0xf7 ../RTOS_bsp/\libucosii_bsp.a(alt_find_dev.o)
 .debug_abbrev  0x0000000000007959       0xf7 ../RTOS_bsp/\libucosii_bsp.a(alt_find_file.o)
 .debug_abbrev  0x0000000000007a50      0x19b ../RTOS_bsp/\libucosii_bsp.a(alt_get_fd.o)
 .debug_abbrev  0x0000000000007beb       0x8c ../RTOS_bsp/\libucosii_bsp.a(alt_icache_flush.o)
 .debug_abbrev  0x0000000000007c77       0xdc ../RTOS_bsp/\libucosii_bsp.a(alt_instruction_exception_entry.o)
 .debug_abbrev  0x0000000000007d53       0xaa c:/intelfpga_lite/18.1/nios2eds/bin/gnu/h-x86_64-mingw32/bin/../lib/gcc/nios2-elf/5.3.0/../../../../../H-x86_64-mingw32/nios2-elf/lib\libc.a(lib_a-atexit.o)
 .debug_abbrev  0x0000000000007dfd      0x1e5 c:/intelfpga_lite/18.1/nios2eds/bin/gnu/h-x86_64-mingw32/bin/../lib/gcc/nios2-elf/5.3.0/../../../../../H-x86_64-mingw32/nios2-elf/lib\libc.a(lib_a-exit.o)
 .debug_abbrev  0x0000000000007fe2      0x241 c:/intelfpga_lite/18.1/nios2eds/bin/gnu/h-x86_64-mingw32/bin/../lib/gcc/nios2-elf/5.3.0/../../../../../H-x86_64-mingw32/nios2-elf/lib\libc.a(lib_a-fputs.o)
 .debug_abbrev  0x0000000000008223       0x7f c:/intelfpga_lite/18.1/nios2eds/bin/gnu/h-x86_64-mingw32/bin/../lib/gcc/nios2-elf/5.3.0/../../../../../H-x86_64-mingw32/nios2-elf/lib\libc.a(lib_a-memcmp.o)
 .debug_abbrev  0x00000000000082a2      0x243 c:/intelfpga_lite/18.1/nios2eds/bin/gnu/h-x86_64-mingw32/bin/../lib/gcc/nios2-elf/5.3.0/../../../../../H-x86_64-mingw32/nios2-elf/lib\libc.a(lib_a-putc.o)
 .debug_abbrev  0x00000000000084e5      0x251 c:/intelfpga_lite/18.1/nios2eds/bin/gnu/h-x86_64-mingw32/bin/../lib/gcc/nios2-elf/5.3.0/../../../../../H-x86_64-mingw32/nios2-elf/lib\libc.a(lib_a-wbuf.o)
 .debug_abbrev  0x0000000000008736      0x21e c:/intelfpga_lite/18.1/nios2eds/bin/gnu/h-x86_64-mingw32/bin/../lib/gcc/nios2-elf/5.3.0/../../../../../H-x86_64-mingw32/nios2-elf/lib\libc.a(lib_a-__atexit.o)
 .debug_abbrev  0x0000000000008954      0x22e c:/intelfpga_lite/18.1/nios2eds/bin/gnu/h-x86_64-mingw32/bin/../lib/gcc/nios2-elf/5.3.0/../../../../../H-x86_64-mingw32/nios2-elf/lib\libc.a(lib_a-__call_atexit.o)
 .debug_abbrev  0x0000000000008b82       0xe1 ../RTOS_bsp/\libucosii_bsp.a(alt_exit.o)

.debug_line     0x0000000000000000     0x9fb3
 *(.debug_line)
 .debug_line    0x0000000000000000       0x72 ../RTOS_bsp//obj/HAL/src/crt0.o
 .debug_line    0x0000000000000072       0xf5 obj/default/hello_ucosii.o
 .debug_line    0x0000000000000167      0x102 c:/intelfpga_lite/18.1/nios2eds/bin/gnu/h-x86_64-mingw32/bin/../lib/gcc/nios2-elf/5.3.0\libgcc.a(lib2-divmod.o)
 .debug_line    0x0000000000000269      0x245 c:/intelfpga_lite/18.1/nios2eds/bin/gnu/h-x86_64-mingw32/bin/../lib/gcc/nios2-elf/5.3.0/../../../../../H-x86_64-mingw32/nios2-elf/lib\libc.a(lib_a-puts.o)
 .debug_line    0x00000000000004ae      0x16c c:/intelfpga_lite/18.1/nios2eds/bin/gnu/h-x86_64-mingw32/bin/../lib/gcc/nios2-elf/5.3.0/../../../../../H-x86_64-mingw32/nios2-elf/lib\libc.a(lib_a-strlen.o)
 .debug_line    0x000000000000061a      0x36f c:/intelfpga_lite/18.1/nios2eds/bin/gnu/h-x86_64-mingw32/bin/../lib/gcc/nios2-elf/5.3.0/../../../../../H-x86_64-mingw32/nios2-elf/lib\libc.a(lib_a-findfp.o)
 .debug_line    0x0000000000000989      0x342 c:/intelfpga_lite/18.1/nios2eds/bin/gnu/h-x86_64-mingw32/bin/../lib/gcc/nios2-elf/5.3.0/../../../../../H-x86_64-mingw32/nios2-elf/lib\libc.a(lib_a-fvwrite.o)
 .debug_line    0x0000000000000ccb      0x237 c:/intelfpga_lite/18.1/nios2eds/bin/gnu/h-x86_64-mingw32/bin/../lib/gcc/nios2-elf/5.3.0/../../../../../H-x86_64-mingw32/nios2-elf/lib\libc.a(lib_a-fwalk.o)
 .debug_line    0x0000000000000f02      0x15d c:/intelfpga_lite/18.1/nios2eds/bin/gnu/h-x86_64-mingw32/bin/../lib/gcc/nios2-elf/5.3.0/../../../../../H-x86_64-mingw32/nios2-elf/lib\libc.a(lib_a-impure.o)
 .debug_line    0x000000000000105f      0x3f9 c:/intelfpga_lite/18.1/nios2eds/bin/gnu/h-x86_64-mingw32/bin/../lib/gcc/nios2-elf/5.3.0/../../../../../H-x86_64-mingw32/nios2-elf/lib\libc.a(lib_a-mallocr.o)
 .debug_line    0x0000000000001458      0x18a c:/intelfpga_lite/18.1/nios2eds/bin/gnu/h-x86_64-mingw32/bin/../lib/gcc/nios2-elf/5.3.0/../../../../../H-x86_64-mingw32/nios2-elf/lib\libc.a(lib_a-memchr.o)
 .debug_line    0x00000000000015e2      0x189 c:/intelfpga_lite/18.1/nios2eds/bin/gnu/h-x86_64-mingw32/bin/../lib/gcc/nios2-elf/5.3.0/../../../../../H-x86_64-mingw32/nios2-elf/lib\libc.a(lib_a-memcpy.o)
 .debug_line    0x000000000000176b      0x18a c:/intelfpga_lite/18.1/nios2eds/bin/gnu/h-x86_64-mingw32/bin/../lib/gcc/nios2-elf/5.3.0/../../../../../H-x86_64-mingw32/nios2-elf/lib\libc.a(lib_a-memmove.o)
 .debug_line    0x00000000000018f5      0x18c c:/intelfpga_lite/18.1/nios2eds/bin/gnu/h-x86_64-mingw32/bin/../lib/gcc/nios2-elf/5.3.0/../../../../../H-x86_64-mingw32/nios2-elf/lib\libc.a(lib_a-memset.o)
 .debug_line    0x0000000000001a81      0x2f2 c:/intelfpga_lite/18.1/nios2eds/bin/gnu/h-x86_64-mingw32/bin/../lib/gcc/nios2-elf/5.3.0/../../../../../H-x86_64-mingw32/nios2-elf/lib\libc.a(lib_a-reallocr.o)
 .debug_line    0x0000000000001d73      0x1e6 c:/intelfpga_lite/18.1/nios2eds/bin/gnu/h-x86_64-mingw32/bin/../lib/gcc/nios2-elf/5.3.0/../../../../../H-x86_64-mingw32/nios2-elf/lib\libc.a(lib_a-sbrkr.o)
 .debug_line    0x0000000000001f59      0x267 c:/intelfpga_lite/18.1/nios2eds/bin/gnu/h-x86_64-mingw32/bin/../lib/gcc/nios2-elf/5.3.0/../../../../../H-x86_64-mingw32/nios2-elf/lib\libc.a(lib_a-stdio.o)
 .debug_line    0x00000000000021c0      0x1f3 c:/intelfpga_lite/18.1/nios2eds/bin/gnu/h-x86_64-mingw32/bin/../lib/gcc/nios2-elf/5.3.0/../../../../../H-x86_64-mingw32/nios2-elf/lib\libc.a(lib_a-writer.o)
 .debug_line    0x00000000000023b3      0x263 c:/intelfpga_lite/18.1/nios2eds/bin/gnu/h-x86_64-mingw32/bin/../lib/gcc/nios2-elf/5.3.0/../../../../../H-x86_64-mingw32/nios2-elf/lib\libc.a(lib_a-wsetup.o)
 .debug_line    0x0000000000002616      0x1f3 c:/intelfpga_lite/18.1/nios2eds/bin/gnu/h-x86_64-mingw32/bin/../lib/gcc/nios2-elf/5.3.0/../../../../../H-x86_64-mingw32/nios2-elf/lib\libc.a(closer.o)
 .debug_line    0x0000000000002809      0x236 c:/intelfpga_lite/18.1/nios2eds/bin/gnu/h-x86_64-mingw32/bin/../lib/gcc/nios2-elf/5.3.0/../../../../../H-x86_64-mingw32/nios2-elf/lib\libc.a(lib_a-fclose.o)
 .debug_line    0x0000000000002a3f      0x2e7 c:/intelfpga_lite/18.1/nios2eds/bin/gnu/h-x86_64-mingw32/bin/../lib/gcc/nios2-elf/5.3.0/../../../../../H-x86_64-mingw32/nios2-elf/lib\libc.a(lib_a-fflush.o)
 .debug_line    0x0000000000002d26      0x2f4 c:/intelfpga_lite/18.1/nios2eds/bin/gnu/h-x86_64-mingw32/bin/../lib/gcc/nios2-elf/5.3.0/../../../../../H-x86_64-mingw32/nios2-elf/lib\libc.a(lib_a-freer.o)
 .debug_line    0x000000000000301a       0x5c c:/intelfpga_lite/18.1/nios2eds/bin/gnu/h-x86_64-mingw32/bin/../lib/gcc/nios2-elf/5.3.0/../../../../../H-x86_64-mingw32/nios2-elf/lib\libc.a(lib_a-int_errno.o)
 .debug_line    0x0000000000003076      0x1f3 c:/intelfpga_lite/18.1/nios2eds/bin/gnu/h-x86_64-mingw32/bin/../lib/gcc/nios2-elf/5.3.0/../../../../../H-x86_64-mingw32/nios2-elf/lib\libc.a(lib_a-lseekr.o)
 .debug_line    0x0000000000003269      0x271 c:/intelfpga_lite/18.1/nios2eds/bin/gnu/h-x86_64-mingw32/bin/../lib/gcc/nios2-elf/5.3.0/../../../../../H-x86_64-mingw32/nios2-elf/lib\libc.a(lib_a-makebuf.o)
 .debug_line    0x00000000000034da      0x1f2 c:/intelfpga_lite/18.1/nios2eds/bin/gnu/h-x86_64-mingw32/bin/../lib/gcc/nios2-elf/5.3.0/../../../../../H-x86_64-mingw32/nios2-elf/lib\libc.a(lib_a-readr.o)
 .debug_line    0x00000000000036cc      0x1fc c:/intelfpga_lite/18.1/nios2eds/bin/gnu/h-x86_64-mingw32/bin/../lib/gcc/nios2-elf/5.3.0/../../../../../H-x86_64-mingw32/nios2-elf/lib\libc.a(lib_a-fstatr.o)
 .debug_line    0x00000000000038c8      0x1f4 c:/intelfpga_lite/18.1/nios2eds/bin/gnu/h-x86_64-mingw32/bin/../lib/gcc/nios2-elf/5.3.0/../../../../../H-x86_64-mingw32/nios2-elf/lib\libc.a(lib_a-isattyr.o)
 .debug_line    0x0000000000003abc      0x174 ../RTOS_bsp/\libucosii_bsp.a(alt_close.o)
 .debug_line    0x0000000000003c30      0x13c ../RTOS_bsp/\libucosii_bsp.a(alt_dev.o)
 .debug_line    0x0000000000003d6c       0x51 ../RTOS_bsp/\libucosii_bsp.a(alt_errno.o)
 .debug_line    0x0000000000003dbd      0x16d ../RTOS_bsp/\libucosii_bsp.a(alt_fstat.o)
 .debug_line    0x0000000000003f2a      0x171 ../RTOS_bsp/\libucosii_bsp.a(alt_isatty.o)
 .debug_line    0x000000000000409b       0x8e ../RTOS_bsp/\libucosii_bsp.a(alt_load.o)
 .debug_line    0x0000000000004129      0x172 ../RTOS_bsp/\libucosii_bsp.a(alt_lseek.o)
 .debug_line    0x000000000000429b      0x12f ../RTOS_bsp/\libucosii_bsp.a(alt_main.o)
 .debug_line    0x00000000000043ca      0x120 ../RTOS_bsp/\libucosii_bsp.a(alt_putchar.o)
 .debug_line    0x00000000000044ea      0x11d ../RTOS_bsp/\libucosii_bsp.a(alt_putstr.o)
 .debug_line    0x0000000000004607      0x1eb ../RTOS_bsp/\libucosii_bsp.a(alt_read.o)
 .debug_line    0x00000000000047f2       0xbd ../RTOS_bsp/\libucosii_bsp.a(alt_release_fd.o)
 .debug_line    0x00000000000048af       0xf3 ../RTOS_bsp/\libucosii_bsp.a(alt_sbrk.o)
 .debug_line    0x00000000000049a2      0x1ea ../RTOS_bsp/\libucosii_bsp.a(alt_write.o)
 .debug_line    0x0000000000004b8c      0x1aa ../RTOS_bsp/\libucosii_bsp.a(alt_env_lock.o)
 .debug_line    0x0000000000004d36      0x20e ../RTOS_bsp/\libucosii_bsp.a(alt_malloc_lock.o)
 .debug_line    0x0000000000004f44      0x68b ../RTOS_bsp/\libucosii_bsp.a(os_core.o)
 .debug_line    0x00000000000055cf       0xd2 ../RTOS_bsp/\libucosii_bsp.a(os_dbg.o)
 .debug_line    0x00000000000056a1      0x4ff ../RTOS_bsp/\libucosii_bsp.a(os_flag.o)
 .debug_line    0x0000000000005ba0      0x23e ../RTOS_bsp/\libucosii_bsp.a(os_mem.o)
 .debug_line    0x0000000000005dde      0x3fb ../RTOS_bsp/\libucosii_bsp.a(os_q.o)
 .debug_line    0x00000000000061d9      0x2e0 ../RTOS_bsp/\libucosii_bsp.a(os_sem.o)
 .debug_line    0x00000000000064b9      0x52d ../RTOS_bsp/\libucosii_bsp.a(os_task.o)
 .debug_line    0x00000000000069e6      0x1a7 ../RTOS_bsp/\libucosii_bsp.a(os_time.o)
 .debug_line    0x0000000000006b8d      0x1ac ../RTOS_bsp/\libucosii_bsp.a(alt_sys_init.o)
 .debug_line    0x0000000000006d39      0x155 ../RTOS_bsp/\libucosii_bsp.a(altera_avalon_jtag_uart_fd.o)
 .debug_line    0x0000000000006e8e      0x225 ../RTOS_bsp/\libucosii_bsp.a(altera_avalon_jtag_uart_init.o)
 .debug_line    0x00000000000070b3      0x157 ../RTOS_bsp/\libucosii_bsp.a(altera_avalon_jtag_uart_ioctl.o)
 .debug_line    0x000000000000720a      0x1db ../RTOS_bsp/\libucosii_bsp.a(altera_avalon_jtag_uart_read.o)
 .debug_line    0x00000000000073e5      0x1dc ../RTOS_bsp/\libucosii_bsp.a(altera_avalon_jtag_uart_write.o)
 .debug_line    0x00000000000075c1       0xfd ../RTOS_bsp/\libucosii_bsp.a(altera_avalon_timer_sc.o)
 .debug_line    0x00000000000076be      0x132 ../RTOS_bsp/\libucosii_bsp.a(altera_avalon_uart_fd.o)
 .debug_line    0x00000000000077f0      0x22f ../RTOS_bsp/\libucosii_bsp.a(altera_avalon_uart_init.o)
 .debug_line    0x0000000000007a1f      0x1f8 ../RTOS_bsp/\libucosii_bsp.a(altera_avalon_uart_read.o)
 .debug_line    0x0000000000007c17      0x1e6 ../RTOS_bsp/\libucosii_bsp.a(altera_avalon_uart_write.o)
 .debug_line    0x0000000000007dfd       0xf9 ../RTOS_bsp/\libucosii_bsp.a(alt_alarm_start.o)
 .debug_line    0x0000000000007ef6       0x61 ../RTOS_bsp/\libucosii_bsp.a(alt_dcache_flush_all.o)
 .debug_line    0x0000000000007f57       0xcf ../RTOS_bsp/\libucosii_bsp.a(alt_dev_llist_insert.o)
 .debug_line    0x0000000000008026       0x59 ../RTOS_bsp/\libucosii_bsp.a(alt_do_ctors.o)
 .debug_line    0x000000000000807f       0x59 ../RTOS_bsp/\libucosii_bsp.a(alt_do_dtors.o)
 .debug_line    0x00000000000080d8       0x50 ../RTOS_bsp/\libucosii_bsp.a(alt_icache_flush_all.o)
 .debug_line    0x0000000000008128       0xeb ../RTOS_bsp/\libucosii_bsp.a(alt_iic.o)
 .debug_line    0x0000000000008213       0xdb ../RTOS_bsp/\libucosii_bsp.a(alt_iic_isr_register.o)
 .debug_line    0x00000000000082ee      0x142 ../RTOS_bsp/\libucosii_bsp.a(alt_io_redirect.o)
 .debug_line    0x0000000000008430       0x6b ../RTOS_bsp/\libucosii_bsp.a(alt_irq_entry.o)
 .debug_line    0x000000000000849b       0xc8 ../RTOS_bsp/\libucosii_bsp.a(alt_irq_handler.o)
 .debug_line    0x0000000000008563       0x50 ../RTOS_bsp/\libucosii_bsp.a(alt_irq_vars.o)
 .debug_line    0x00000000000085b3      0x137 ../RTOS_bsp/\libucosii_bsp.a(alt_open.o)
 .debug_line    0x00000000000086ea       0xff ../RTOS_bsp/\libucosii_bsp.a(alt_tick.o)
 .debug_line    0x00000000000087e9       0x51 ../RTOS_bsp/\libucosii_bsp.a(altera_nios2_gen2_irq.o)
 .debug_line    0x000000000000883a       0x86 ../RTOS_bsp/\libucosii_bsp.a(os_cpu_a.o)
 .debug_line    0x00000000000088c0      0x1b2 ../RTOS_bsp/\libucosii_bsp.a(os_cpu_c.o)
 .debug_line    0x0000000000008a72       0xb3 ../RTOS_bsp/\libucosii_bsp.a(alt_exception_entry.o)
 .debug_line    0x0000000000008b25       0xc4 ../RTOS_bsp/\libucosii_bsp.a(alt_find_dev.o)
 .debug_line    0x0000000000008be9       0xe0 ../RTOS_bsp/\libucosii_bsp.a(alt_find_file.o)
 .debug_line    0x0000000000008cc9      0x126 ../RTOS_bsp/\libucosii_bsp.a(alt_get_fd.o)
 .debug_line    0x0000000000008def       0x81 ../RTOS_bsp/\libucosii_bsp.a(alt_icache_flush.o)
 .debug_line    0x0000000000008e70       0xba ../RTOS_bsp/\libucosii_bsp.a(alt_instruction_exception_entry.o)
 .debug_line    0x0000000000008f2a       0xe4 c:/intelfpga_lite/18.1/nios2eds/bin/gnu/h-x86_64-mingw32/bin/../lib/gcc/nios2-elf/5.3.0/../../../../../H-x86_64-mingw32/nios2-elf/lib\libc.a(lib_a-atexit.o)
 .debug_line    0x000000000000900e      0x1f9 c:/intelfpga_lite/18.1/nios2eds/bin/gnu/h-x86_64-mingw32/bin/../lib/gcc/nios2-elf/5.3.0/../../../../../H-x86_64-mingw32/nios2-elf/lib\libc.a(lib_a-exit.o)
 .debug_line    0x0000000000009207      0x238 c:/intelfpga_lite/18.1/nios2eds/bin/gnu/h-x86_64-mingw32/bin/../lib/gcc/nios2-elf/5.3.0/../../../../../H-x86_64-mingw32/nios2-elf/lib\libc.a(lib_a-fputs.o)
 .debug_line    0x000000000000943f      0x173 c:/intelfpga_lite/18.1/nios2eds/bin/gnu/h-x86_64-mingw32/bin/../lib/gcc/nios2-elf/5.3.0/../../../../../H-x86_64-mingw32/nios2-elf/lib\libc.a(lib_a-memcmp.o)
 .debug_line    0x00000000000095b2      0x272 c:/intelfpga_lite/18.1/nios2eds/bin/gnu/h-x86_64-mingw32/bin/../lib/gcc/nios2-elf/5.3.0/../../../../../H-x86_64-mingw32/nios2-elf/lib\libc.a(lib_a-putc.o)
 .debug_line    0x0000000000009824      0x26e c:/intelfpga_lite/18.1/nios2eds/bin/gnu/h-x86_64-mingw32/bin/../lib/gcc/nios2-elf/5.3.0/../../../../../H-x86_64-mingw32/nios2-elf/lib\libc.a(lib_a-wbuf.o)
 .debug_line    0x0000000000009a92      0x21c c:/intelfpga_lite/18.1/nios2eds/bin/gnu/h-x86_64-mingw32/bin/../lib/gcc/nios2-elf/5.3.0/../../../../../H-x86_64-mingw32/nios2-elf/lib\libc.a(lib_a-__atexit.o)
 .debug_line    0x0000000000009cae      0x237 c:/intelfpga_lite/18.1/nios2eds/bin/gnu/h-x86_64-mingw32/bin/../lib/gcc/nios2-elf/5.3.0/../../../../../H-x86_64-mingw32/nios2-elf/lib\libc.a(lib_a-__call_atexit.o)
 .debug_line    0x0000000000009ee5       0xce ../RTOS_bsp/\libucosii_bsp.a(alt_exit.o)

.debug_frame    0x0000000000000000     0x2998
 *(.debug_frame)
 .debug_frame   0x0000000000000000       0x74 obj/default/hello_ucosii.o
 .debug_frame   0x0000000000000074       0x50 c:/intelfpga_lite/18.1/nios2eds/bin/gnu/h-x86_64-mingw32/bin/../lib/gcc/nios2-elf/5.3.0\libgcc.a(lib2-divmod.o)
 .debug_frame   0x00000000000000c4       0x48 c:/intelfpga_lite/18.1/nios2eds/bin/gnu/h-x86_64-mingw32/bin/../lib/gcc/nios2-elf/5.3.0/../../../../../H-x86_64-mingw32/nios2-elf/lib\libc.a(lib_a-puts.o)
 .debug_frame   0x000000000000010c       0x20 c:/intelfpga_lite/18.1/nios2eds/bin/gnu/h-x86_64-mingw32/bin/../lib/gcc/nios2-elf/5.3.0/../../../../../H-x86_64-mingw32/nios2-elf/lib\libc.a(lib_a-strlen.o)
 .debug_frame   0x000000000000012c      0x160 c:/intelfpga_lite/18.1/nios2eds/bin/gnu/h-x86_64-mingw32/bin/../lib/gcc/nios2-elf/5.3.0/../../../../../H-x86_64-mingw32/nios2-elf/lib\libc.a(lib_a-findfp.o)
 .debug_frame   0x000000000000028c       0x78 c:/intelfpga_lite/18.1/nios2eds/bin/gnu/h-x86_64-mingw32/bin/../lib/gcc/nios2-elf/5.3.0/../../../../../H-x86_64-mingw32/nios2-elf/lib\libc.a(lib_a-fvwrite.o)
 .debug_frame   0x0000000000000304       0x90 c:/intelfpga_lite/18.1/nios2eds/bin/gnu/h-x86_64-mingw32/bin/../lib/gcc/nios2-elf/5.3.0/../../../../../H-x86_64-mingw32/nios2-elf/lib\libc.a(lib_a-fwalk.o)
 .debug_frame   0x0000000000000394       0x54 c:/intelfpga_lite/18.1/nios2eds/bin/gnu/h-x86_64-mingw32/bin/../lib/gcc/nios2-elf/5.3.0/../../../../../H-x86_64-mingw32/nios2-elf/lib\libc.a(lib_a-mallocr.o)
 .debug_frame   0x00000000000003e8       0x20 c:/intelfpga_lite/18.1/nios2eds/bin/gnu/h-x86_64-mingw32/bin/../lib/gcc/nios2-elf/5.3.0/../../../../../H-x86_64-mingw32/nios2-elf/lib\libc.a(lib_a-memchr.o)
 .debug_frame   0x0000000000000408       0x38 c:/intelfpga_lite/18.1/nios2eds/bin/gnu/h-x86_64-mingw32/bin/../lib/gcc/nios2-elf/5.3.0/../../../../../H-x86_64-mingw32/nios2-elf/lib\libc.a(lib_a-memcpy.o)
 .debug_frame   0x0000000000000440       0x20 c:/intelfpga_lite/18.1/nios2eds/bin/gnu/h-x86_64-mingw32/bin/../lib/gcc/nios2-elf/5.3.0/../../../../../H-x86_64-mingw32/nios2-elf/lib\libc.a(lib_a-memmove.o)
 .debug_frame   0x0000000000000460       0x20 c:/intelfpga_lite/18.1/nios2eds/bin/gnu/h-x86_64-mingw32/bin/../lib/gcc/nios2-elf/5.3.0/../../../../../H-x86_64-mingw32/nios2-elf/lib\libc.a(lib_a-memset.o)
 .debug_frame   0x0000000000000480       0x70 c:/intelfpga_lite/18.1/nios2eds/bin/gnu/h-x86_64-mingw32/bin/../lib/gcc/nios2-elf/5.3.0/../../../../../H-x86_64-mingw32/nios2-elf/lib\libc.a(lib_a-reallocr.o)
 .debug_frame   0x00000000000004f0       0x38 c:/intelfpga_lite/18.1/nios2eds/bin/gnu/h-x86_64-mingw32/bin/../lib/gcc/nios2-elf/5.3.0/../../../../../H-x86_64-mingw32/nios2-elf/lib\libc.a(lib_a-sbrkr.o)
 .debug_frame   0x0000000000000528       0xb4 c:/intelfpga_lite/18.1/nios2eds/bin/gnu/h-x86_64-mingw32/bin/../lib/gcc/nios2-elf/5.3.0/../../../../../H-x86_64-mingw32/nios2-elf/lib\libc.a(lib_a-stdio.o)
 .debug_frame   0x00000000000005dc       0x38 c:/intelfpga_lite/18.1/nios2eds/bin/gnu/h-x86_64-mingw32/bin/../lib/gcc/nios2-elf/5.3.0/../../../../../H-x86_64-mingw32/nios2-elf/lib\libc.a(lib_a-writer.o)
 .debug_frame   0x0000000000000614       0x38 c:/intelfpga_lite/18.1/nios2eds/bin/gnu/h-x86_64-mingw32/bin/../lib/gcc/nios2-elf/5.3.0/../../../../../H-x86_64-mingw32/nios2-elf/lib\libc.a(lib_a-wsetup.o)
 .debug_frame   0x000000000000064c       0x38 c:/intelfpga_lite/18.1/nios2eds/bin/gnu/h-x86_64-mingw32/bin/../lib/gcc/nios2-elf/5.3.0/../../../../../H-x86_64-mingw32/nios2-elf/lib\libc.a(closer.o)
 .debug_frame   0x0000000000000684       0x54 c:/intelfpga_lite/18.1/nios2eds/bin/gnu/h-x86_64-mingw32/bin/../lib/gcc/nios2-elf/5.3.0/../../../../../H-x86_64-mingw32/nios2-elf/lib\libc.a(lib_a-fclose.o)
 .debug_frame   0x00000000000006d8       0x7c c:/intelfpga_lite/18.1/nios2eds/bin/gnu/h-x86_64-mingw32/bin/../lib/gcc/nios2-elf/5.3.0/../../../../../H-x86_64-mingw32/nios2-elf/lib\libc.a(lib_a-fflush.o)
 .debug_frame   0x0000000000000754       0x70 c:/intelfpga_lite/18.1/nios2eds/bin/gnu/h-x86_64-mingw32/bin/../lib/gcc/nios2-elf/5.3.0/../../../../../H-x86_64-mingw32/nios2-elf/lib\libc.a(lib_a-freer.o)
 .debug_frame   0x00000000000007c4       0x38 c:/intelfpga_lite/18.1/nios2eds/bin/gnu/h-x86_64-mingw32/bin/../lib/gcc/nios2-elf/5.3.0/../../../../../H-x86_64-mingw32/nios2-elf/lib\libc.a(lib_a-lseekr.o)
 .debug_frame   0x00000000000007fc       0x4c c:/intelfpga_lite/18.1/nios2eds/bin/gnu/h-x86_64-mingw32/bin/../lib/gcc/nios2-elf/5.3.0/../../../../../H-x86_64-mingw32/nios2-elf/lib\libc.a(lib_a-makebuf.o)
 .debug_frame   0x0000000000000848       0x38 c:/intelfpga_lite/18.1/nios2eds/bin/gnu/h-x86_64-mingw32/bin/../lib/gcc/nios2-elf/5.3.0/../../../../../H-x86_64-mingw32/nios2-elf/lib\libc.a(lib_a-readr.o)
 .debug_frame   0x0000000000000880       0x38 c:/intelfpga_lite/18.1/nios2eds/bin/gnu/h-x86_64-mingw32/bin/../lib/gcc/nios2-elf/5.3.0/../../../../../H-x86_64-mingw32/nios2-elf/lib\libc.a(lib_a-fstatr.o)
 .debug_frame   0x00000000000008b8       0x38 c:/intelfpga_lite/18.1/nios2eds/bin/gnu/h-x86_64-mingw32/bin/../lib/gcc/nios2-elf/5.3.0/../../../../../H-x86_64-mingw32/nios2-elf/lib\libc.a(lib_a-isattyr.o)
 .debug_frame   0x00000000000008f0       0x60 ../RTOS_bsp/\libucosii_bsp.a(alt_close.o)
 .debug_frame   0x0000000000000950       0x34 ../RTOS_bsp/\libucosii_bsp.a(alt_dev.o)
 .debug_frame   0x0000000000000984       0x60 ../RTOS_bsp/\libucosii_bsp.a(alt_fstat.o)
 .debug_frame   0x00000000000009e4       0x60 ../RTOS_bsp/\libucosii_bsp.a(alt_isatty.o)
 .debug_frame   0x0000000000000a44       0x5c ../RTOS_bsp/\libucosii_bsp.a(alt_load.o)
 .debug_frame   0x0000000000000aa0       0x60 ../RTOS_bsp/\libucosii_bsp.a(alt_lseek.o)
 .debug_frame   0x0000000000000b00       0x2c ../RTOS_bsp/\libucosii_bsp.a(alt_main.o)
 .debug_frame   0x0000000000000b2c       0x38 ../RTOS_bsp/\libucosii_bsp.a(alt_putchar.o)
 .debug_frame   0x0000000000000b64       0x38 ../RTOS_bsp/\libucosii_bsp.a(alt_putstr.o)
 .debug_frame   0x0000000000000b9c       0x60 ../RTOS_bsp/\libucosii_bsp.a(alt_read.o)
 .debug_frame   0x0000000000000bfc       0x34 ../RTOS_bsp/\libucosii_bsp.a(alt_release_fd.o)
 .debug_frame   0x0000000000000c30       0x34 ../RTOS_bsp/\libucosii_bsp.a(alt_sbrk.o)
 .debug_frame   0x0000000000000c64       0x60 ../RTOS_bsp/\libucosii_bsp.a(alt_write.o)
 .debug_frame   0x0000000000000cc4       0x60 ../RTOS_bsp/\libucosii_bsp.a(alt_env_lock.o)
 .debug_frame   0x0000000000000d24       0x64 ../RTOS_bsp/\libucosii_bsp.a(alt_malloc_lock.o)
 .debug_frame   0x0000000000000d88      0x530 ../RTOS_bsp/\libucosii_bsp.a(os_core.o)
 .debug_frame   0x00000000000012b8       0x34 ../RTOS_bsp/\libucosii_bsp.a(os_dbg.o)
 .debug_frame   0x00000000000012ec      0x200 ../RTOS_bsp/\libucosii_bsp.a(os_flag.o)
 .debug_frame   0x00000000000014ec      0x118 ../RTOS_bsp/\libucosii_bsp.a(os_mem.o)
 .debug_frame   0x0000000000001604      0x1bc ../RTOS_bsp/\libucosii_bsp.a(os_q.o)
 .debug_frame   0x00000000000017c0      0x144 ../RTOS_bsp/\libucosii_bsp.a(os_sem.o)
 .debug_frame   0x0000000000001904      0x1e4 ../RTOS_bsp/\libucosii_bsp.a(os_task.o)
 .debug_frame   0x0000000000001ae8       0xd8 ../RTOS_bsp/\libucosii_bsp.a(os_time.o)
 .debug_frame   0x0000000000001bc0       0x88 ../RTOS_bsp/\libucosii_bsp.a(alt_sys_init.o)
 .debug_frame   0x0000000000001c48       0xb0 ../RTOS_bsp/\libucosii_bsp.a(altera_avalon_jtag_uart_fd.o)
 .debug_frame   0x0000000000001cf8       0xac ../RTOS_bsp/\libucosii_bsp.a(altera_avalon_jtag_uart_init.o)
 .debug_frame   0x0000000000001da4       0x34 ../RTOS_bsp/\libucosii_bsp.a(altera_avalon_jtag_uart_ioctl.o)
 .debug_frame   0x0000000000001dd8       0x38 ../RTOS_bsp/\libucosii_bsp.a(altera_avalon_jtag_uart_read.o)
 .debug_frame   0x0000000000001e10       0x38 ../RTOS_bsp/\libucosii_bsp.a(altera_avalon_jtag_uart_write.o)
 .debug_frame   0x0000000000001e48       0x60 ../RTOS_bsp/\libucosii_bsp.a(altera_avalon_timer_sc.o)
 .debug_frame   0x0000000000001ea8       0x88 ../RTOS_bsp/\libucosii_bsp.a(altera_avalon_uart_fd.o)
 .debug_frame   0x0000000000001f30       0xd4 ../RTOS_bsp/\libucosii_bsp.a(altera_avalon_uart_init.o)
 .debug_frame   0x0000000000002004       0x60 ../RTOS_bsp/\libucosii_bsp.a(altera_avalon_uart_read.o)
 .debug_frame   0x0000000000002064       0x60 ../RTOS_bsp/\libucosii_bsp.a(altera_avalon_uart_write.o)
 .debug_frame   0x00000000000020c4       0x34 ../RTOS_bsp/\libucosii_bsp.a(alt_alarm_start.o)
 .debug_frame   0x00000000000020f8       0x34 ../RTOS_bsp/\libucosii_bsp.a(alt_dcache_flush_all.o)
 .debug_frame   0x000000000000212c       0x60 ../RTOS_bsp/\libucosii_bsp.a(alt_dev_llist_insert.o)
 .debug_frame   0x000000000000218c       0x38 ../RTOS_bsp/\libucosii_bsp.a(alt_do_ctors.o)
 .debug_frame   0x00000000000021c4       0x38 ../RTOS_bsp/\libucosii_bsp.a(alt_do_dtors.o)
 .debug_frame   0x00000000000021fc       0x38 ../RTOS_bsp/\libucosii_bsp.a(alt_icache_flush_all.o)
 .debug_frame   0x0000000000002234       0xa4 ../RTOS_bsp/\libucosii_bsp.a(alt_iic.o)
 .debug_frame   0x00000000000022d8       0x38 ../RTOS_bsp/\libucosii_bsp.a(alt_iic_isr_register.o)
 .debug_frame   0x0000000000002310       0x60 ../RTOS_bsp/\libucosii_bsp.a(alt_io_redirect.o)
 .debug_frame   0x0000000000002370       0x38 ../RTOS_bsp/\libucosii_bsp.a(alt_irq_handler.o)
 .debug_frame   0x00000000000023a8       0x84 ../RTOS_bsp/\libucosii_bsp.a(alt_open.o)
 .debug_frame   0x000000000000242c       0x5c ../RTOS_bsp/\libucosii_bsp.a(alt_tick.o)
 .debug_frame   0x0000000000002488       0x34 ../RTOS_bsp/\libucosii_bsp.a(altera_nios2_gen2_irq.o)
 .debug_frame   0x00000000000024bc      0x17c ../RTOS_bsp/\libucosii_bsp.a(os_cpu_c.o)
 .debug_frame   0x0000000000002638       0x38 ../RTOS_bsp/\libucosii_bsp.a(alt_find_dev.o)
 .debug_frame   0x0000000000002670       0x38 ../RTOS_bsp/\libucosii_bsp.a(alt_find_file.o)
 .debug_frame   0x00000000000026a8       0x38 ../RTOS_bsp/\libucosii_bsp.a(alt_get_fd.o)
 .debug_frame   0x00000000000026e0       0x34 ../RTOS_bsp/\libucosii_bsp.a(alt_icache_flush.o)
 .debug_frame   0x0000000000002714       0x5c ../RTOS_bsp/\libucosii_bsp.a(alt_instruction_exception_entry.o)
 .debug_frame   0x0000000000002770       0x20 c:/intelfpga_lite/18.1/nios2eds/bin/gnu/h-x86_64-mingw32/bin/../lib/gcc/nios2-elf/5.3.0/../../../../../H-x86_64-mingw32/nios2-elf/lib\libc.a(lib_a-atexit.o)
 .debug_frame   0x0000000000002790       0x28 c:/intelfpga_lite/18.1/nios2eds/bin/gnu/h-x86_64-mingw32/bin/../lib/gcc/nios2-elf/5.3.0/../../../../../H-x86_64-mingw32/nios2-elf/lib\libc.a(lib_a-exit.o)
 .debug_frame   0x00000000000027b8       0x48 c:/intelfpga_lite/18.1/nios2eds/bin/gnu/h-x86_64-mingw32/bin/../lib/gcc/nios2-elf/5.3.0/../../../../../H-x86_64-mingw32/nios2-elf/lib\libc.a(lib_a-fputs.o)
 .debug_frame   0x0000000000002800       0x20 c:/intelfpga_lite/18.1/nios2eds/bin/gnu/h-x86_64-mingw32/bin/../lib/gcc/nios2-elf/5.3.0/../../../../../H-x86_64-mingw32/nios2-elf/lib\libc.a(lib_a-memcmp.o)
 .debug_frame   0x0000000000002820       0x70 c:/intelfpga_lite/18.1/nios2eds/bin/gnu/h-x86_64-mingw32/bin/../lib/gcc/nios2-elf/5.3.0/../../../../../H-x86_64-mingw32/nios2-elf/lib\libc.a(lib_a-putc.o)
 .debug_frame   0x0000000000002890       0x50 c:/intelfpga_lite/18.1/nios2eds/bin/gnu/h-x86_64-mingw32/bin/../lib/gcc/nios2-elf/5.3.0/../../../../../H-x86_64-mingw32/nios2-elf/lib\libc.a(lib_a-wbuf.o)
 .debug_frame   0x00000000000028e0       0x38 c:/intelfpga_lite/18.1/nios2eds/bin/gnu/h-x86_64-mingw32/bin/../lib/gcc/nios2-elf/5.3.0/../../../../../H-x86_64-mingw32/nios2-elf/lib\libc.a(lib_a-__atexit.o)
 .debug_frame   0x0000000000002918       0x54 c:/intelfpga_lite/18.1/nios2eds/bin/gnu/h-x86_64-mingw32/bin/../lib/gcc/nios2-elf/5.3.0/../../../../../H-x86_64-mingw32/nios2-elf/lib\libc.a(lib_a-__call_atexit.o)
 .debug_frame   0x000000000000296c       0x2c ../RTOS_bsp/\libucosii_bsp.a(alt_exit.o)

.debug_str      0x0000000000000000     0x3b99
 *(.debug_str)
 .debug_str     0x0000000000000000      0x197 obj/default/hello_ucosii.o
                                        0x1dc (size before relaxing)
 .debug_str     0x0000000000000197      0x16d c:/intelfpga_lite/18.1/nios2eds/bin/gnu/h-x86_64-mingw32/bin/../lib/gcc/nios2-elf/5.3.0\libgcc.a(lib2-divmod.o)
                                        0x1b8 (size before relaxing)
 .debug_str     0x0000000000000304      0x4d5 c:/intelfpga_lite/18.1/nios2eds/bin/gnu/h-x86_64-mingw32/bin/../lib/gcc/nios2-elf/5.3.0/../../../../../H-x86_64-mingw32/nios2-elf/lib\libc.a(lib_a-puts.o)
                                        0x602 (size before relaxing)
 .debug_str     0x00000000000007d9       0xcb c:/intelfpga_lite/18.1/nios2eds/bin/gnu/h-x86_64-mingw32/bin/../lib/gcc/nios2-elf/5.3.0/../../../../../H-x86_64-mingw32/nios2-elf/lib\libc.a(lib_a-strlen.o)
                                        0x1dd (size before relaxing)
 .debug_str     0x00000000000008a4      0x143 c:/intelfpga_lite/18.1/nios2eds/bin/gnu/h-x86_64-mingw32/bin/../lib/gcc/nios2-elf/5.3.0/../../../../../H-x86_64-mingw32/nios2-elf/lib\libc.a(lib_a-findfp.o)
                                        0x6b1 (size before relaxing)
 .debug_str     0x00000000000009e7       0x97 c:/intelfpga_lite/18.1/nios2eds/bin/gnu/h-x86_64-mingw32/bin/../lib/gcc/nios2-elf/5.3.0/../../../../../H-x86_64-mingw32/nios2-elf/lib\libc.a(lib_a-fvwrite.o)
                                        0x62d (size before relaxing)
 .debug_str     0x0000000000000a7e       0x47 c:/intelfpga_lite/18.1/nios2eds/bin/gnu/h-x86_64-mingw32/bin/../lib/gcc/nios2-elf/5.3.0/../../../../../H-x86_64-mingw32/nios2-elf/lib\libc.a(lib_a-fwalk.o)
                                        0x5a0 (size before relaxing)
 .debug_str     0x0000000000000ac5       0xc8 c:/intelfpga_lite/18.1/nios2eds/bin/gnu/h-x86_64-mingw32/bin/../lib/gcc/nios2-elf/5.3.0/../../../../../H-x86_64-mingw32/nios2-elf/lib\libc.a(lib_a-impure.o)
                                        0x59b (size before relaxing)
 .debug_str     0x0000000000000b8d      0x2a7 c:/intelfpga_lite/18.1/nios2eds/bin/gnu/h-x86_64-mingw32/bin/../lib/gcc/nios2-elf/5.3.0/../../../../../H-x86_64-mingw32/nios2-elf/lib\libc.a(lib_a-mallocr.o)
                                        0x7a0 (size before relaxing)
 .debug_str     0x0000000000000e34       0x4f c:/intelfpga_lite/18.1/nios2eds/bin/gnu/h-x86_64-mingw32/bin/../lib/gcc/nios2-elf/5.3.0/../../../../../H-x86_64-mingw32/nios2-elf/lib\libc.a(lib_a-memchr.o)
                                        0x1e4 (size before relaxing)
 .debug_str     0x0000000000000e83       0x61 c:/intelfpga_lite/18.1/nios2eds/bin/gnu/h-x86_64-mingw32/bin/../lib/gcc/nios2-elf/5.3.0/../../../../../H-x86_64-mingw32/nios2-elf/lib\libc.a(lib_a-memcpy.o)
                                        0x1f1 (size before relaxing)
 .debug_str     0x0000000000000ee4       0x44 c:/intelfpga_lite/18.1/nios2eds/bin/gnu/h-x86_64-mingw32/bin/../lib/gcc/nios2-elf/5.3.0/../../../../../H-x86_64-mingw32/nios2-elf/lib\libc.a(lib_a-memmove.o)
                                        0x1fd (size before relaxing)
 .debug_str     0x0000000000000f28       0x41 c:/intelfpga_lite/18.1/nios2eds/bin/gnu/h-x86_64-mingw32/bin/../lib/gcc/nios2-elf/5.3.0/../../../../../H-x86_64-mingw32/nios2-elf/lib\libc.a(lib_a-memset.o)
                                        0x1de (size before relaxing)
 .debug_str     0x0000000000000f69       0x49 c:/intelfpga_lite/18.1/nios2eds/bin/gnu/h-x86_64-mingw32/bin/../lib/gcc/nios2-elf/5.3.0/../../../../../H-x86_64-mingw32/nios2-elf/lib\libc.a(lib_a-reallocr.o)
                                        0x67c (size before relaxing)
 .debug_str     0x0000000000000fb2       0x4c c:/intelfpga_lite/18.1/nios2eds/bin/gnu/h-x86_64-mingw32/bin/../lib/gcc/nios2-elf/5.3.0/../../../../../H-x86_64-mingw32/nios2-elf/lib\libc.a(lib_a-sbrkr.o)
                                        0x591 (size before relaxing)
 .debug_str     0x0000000000000ffe       0x98 c:/intelfpga_lite/18.1/nios2eds/bin/gnu/h-x86_64-mingw32/bin/../lib/gcc/nios2-elf/5.3.0/../../../../../H-x86_64-mingw32/nios2-elf/lib\libc.a(lib_a-stdio.o)
                                        0x5ef (size before relaxing)
 .debug_str     0x0000000000001096       0x39 c:/intelfpga_lite/18.1/nios2eds/bin/gnu/h-x86_64-mingw32/bin/../lib/gcc/nios2-elf/5.3.0/../../../../../H-x86_64-mingw32/nios2-elf/lib\libc.a(lib_a-writer.o)
                                        0x595 (size before relaxing)
 .debug_str     0x00000000000010cf       0x46 c:/intelfpga_lite/18.1/nios2eds/bin/gnu/h-x86_64-mingw32/bin/../lib/gcc/nios2-elf/5.3.0/../../../../../H-x86_64-mingw32/nios2-elf/lib\libc.a(lib_a-wsetup.o)
                                        0x5ba (size before relaxing)
 .debug_str     0x0000000000001115       0x39 c:/intelfpga_lite/18.1/nios2eds/bin/gnu/h-x86_64-mingw32/bin/../lib/gcc/nios2-elf/5.3.0/../../../../../H-x86_64-mingw32/nios2-elf/lib\libc.a(closer.o)
                                        0x585 (size before relaxing)
 .debug_str     0x000000000000114e       0x5a c:/intelfpga_lite/18.1/nios2eds/bin/gnu/h-x86_64-mingw32/bin/../lib/gcc/nios2-elf/5.3.0/../../../../../H-x86_64-mingw32/nios2-elf/lib\libc.a(lib_a-fclose.o)
                                        0x5e8 (size before relaxing)
 .debug_str     0x00000000000011a8       0x51 c:/intelfpga_lite/18.1/nios2eds/bin/gnu/h-x86_64-mingw32/bin/../lib/gcc/nios2-elf/5.3.0/../../../../../H-x86_64-mingw32/nios2-elf/lib\libc.a(lib_a-fflush.o)
                                        0x5fb (size before relaxing)
 .debug_str     0x00000000000011f9       0x34 c:/intelfpga_lite/18.1/nios2eds/bin/gnu/h-x86_64-mingw32/bin/../lib/gcc/nios2-elf/5.3.0/../../../../../H-x86_64-mingw32/nios2-elf/lib\libc.a(lib_a-freer.o)
                                        0x6ea (size before relaxing)
 .debug_str     0x000000000000122d       0x3c c:/intelfpga_lite/18.1/nios2eds/bin/gnu/h-x86_64-mingw32/bin/../lib/gcc/nios2-elf/5.3.0/../../../../../H-x86_64-mingw32/nios2-elf/lib\libc.a(lib_a-int_errno.o)
                                        0x1c3 (size before relaxing)
 .debug_str     0x0000000000001269       0x3f c:/intelfpga_lite/18.1/nios2eds/bin/gnu/h-x86_64-mingw32/bin/../lib/gcc/nios2-elf/5.3.0/../../../../../H-x86_64-mingw32/nios2-elf/lib\libc.a(lib_a-lseekr.o)
                                        0x58c (size before relaxing)
 .debug_str     0x00000000000012a8      0x121 c:/intelfpga_lite/18.1/nios2eds/bin/gnu/h-x86_64-mingw32/bin/../lib/gcc/nios2-elf/5.3.0/../../../../../H-x86_64-mingw32/nios2-elf/lib\libc.a(lib_a-makebuf.o)
                                        0x69d (size before relaxing)
 .debug_str     0x00000000000013c9       0x38 c:/intelfpga_lite/18.1/nios2eds/bin/gnu/h-x86_64-mingw32/bin/../lib/gcc/nios2-elf/5.3.0/../../../../../H-x86_64-mingw32/nios2-elf/lib\libc.a(lib_a-readr.o)
                                        0x592 (size before relaxing)
 .debug_str     0x0000000000001401       0x45 c:/intelfpga_lite/18.1/nios2eds/bin/gnu/h-x86_64-mingw32/bin/../lib/gcc/nios2-elf/5.3.0/../../../../../H-x86_64-mingw32/nios2-elf/lib\libc.a(lib_a-fstatr.o)
                                        0x671 (size before relaxing)
 .debug_str     0x0000000000001446       0x41 c:/intelfpga_lite/18.1/nios2eds/bin/gnu/h-x86_64-mingw32/bin/../lib/gcc/nios2-elf/5.3.0/../../../../../H-x86_64-mingw32/nios2-elf/lib\libc.a(lib_a-isattyr.o)
                                        0x588 (size before relaxing)
 .debug_str     0x0000000000001487       0xf0 ../RTOS_bsp/\libucosii_bsp.a(alt_close.o)
                                        0x242 (size before relaxing)
 .debug_str     0x0000000000001577       0xc4 ../RTOS_bsp/\libucosii_bsp.a(alt_dev.o)
                                        0x3b0 (size before relaxing)
 .debug_str     0x000000000000163b       0x14 ../RTOS_bsp/\libucosii_bsp.a(alt_errno.o)
                                        0x14c (size before relaxing)
 .debug_str     0x000000000000164f       0x14 ../RTOS_bsp/\libucosii_bsp.a(alt_fstat.o)
                                        0x323 (size before relaxing)
 .debug_str     0x0000000000001663       0x15 ../RTOS_bsp/\libucosii_bsp.a(alt_isatty.o)
                                        0x32b (size before relaxing)
 .debug_str     0x0000000000001678       0xe9 ../RTOS_bsp/\libucosii_bsp.a(alt_load.o)
                                        0x219 (size before relaxing)
 .debug_str     0x0000000000001761       0x14 ../RTOS_bsp/\libucosii_bsp.a(alt_lseek.o)
                                        0x248 (size before relaxing)
 .debug_str     0x0000000000001775       0x5d ../RTOS_bsp/\libucosii_bsp.a(alt_main.o)
                                        0x267 (size before relaxing)
 .debug_str     0x00000000000017d2       0x16 ../RTOS_bsp/\libucosii_bsp.a(alt_putchar.o)
                                        0x50c (size before relaxing)
 .debug_str     0x00000000000017e8       0x15 ../RTOS_bsp/\libucosii_bsp.a(alt_putstr.o)
                                        0x50a (size before relaxing)
 .debug_str     0x00000000000017fd       0x13 ../RTOS_bsp/\libucosii_bsp.a(alt_read.o)
                                        0x32e (size before relaxing)
 .debug_str     0x0000000000001810       0x28 ../RTOS_bsp/\libucosii_bsp.a(alt_release_fd.o)
                                        0x22c (size before relaxing)
 .debug_str     0x0000000000001838       0x98 ../RTOS_bsp/\libucosii_bsp.a(alt_sbrk.o)
                                        0x1db (size before relaxing)
 .debug_str     0x00000000000018d0       0x14 ../RTOS_bsp/\libucosii_bsp.a(alt_write.o)
                                        0x32f (size before relaxing)
 .debug_str     0x00000000000018e4      0x246 ../RTOS_bsp/\libucosii_bsp.a(alt_env_lock.o)
                                        0x7cf (size before relaxing)
 .debug_str     0x0000000000001b2a       0x36 ../RTOS_bsp/\libucosii_bsp.a(alt_malloc_lock.o)
                                        0x831 (size before relaxing)
 .debug_str     0x0000000000001b60      0x536 ../RTOS_bsp/\libucosii_bsp.a(os_core.o)
                                        0x95d (size before relaxing)
 .debug_str     0x0000000000002096      0x2e5 ../RTOS_bsp/\libucosii_bsp.a(os_dbg.o)
                                        0x8cc (size before relaxing)
 .debug_str     0x000000000000237b      0x136 ../RTOS_bsp/\libucosii_bsp.a(os_flag.o)
                                        0x5f9 (size before relaxing)
 .debug_str     0x00000000000024b1       0xcf ../RTOS_bsp/\libucosii_bsp.a(os_mem.o)
                                        0x302 (size before relaxing)
 .debug_str     0x0000000000002580       0xc0 ../RTOS_bsp/\libucosii_bsp.a(os_q.o)
                                        0x57c (size before relaxing)
 .debug_str     0x0000000000002640       0x77 ../RTOS_bsp/\libucosii_bsp.a(os_sem.o)
                                        0x505 (size before relaxing)
 .debug_str     0x00000000000026b7      0x118 ../RTOS_bsp/\libucosii_bsp.a(os_task.o)
                                        0x608 (size before relaxing)
 .debug_str     0x00000000000027cf       0x6d ../RTOS_bsp/\libucosii_bsp.a(os_time.o)
                                        0x4a8 (size before relaxing)
 .debug_str     0x000000000000283c      0x210 ../RTOS_bsp/\libucosii_bsp.a(alt_sys_init.o)
                                        0x51d (size before relaxing)
 .debug_str     0x0000000000002a4c       0xb2 ../RTOS_bsp/\libucosii_bsp.a(altera_avalon_jtag_uart_fd.o)
                                        0x49b (size before relaxing)
 .debug_str     0x0000000000002afe       0xf6 ../RTOS_bsp/\libucosii_bsp.a(altera_avalon_jtag_uart_init.o)
                                        0x462 (size before relaxing)
 .debug_str     0x0000000000002bf4       0x4a ../RTOS_bsp/\libucosii_bsp.a(altera_avalon_jtag_uart_ioctl.o)
                                        0x38a (size before relaxing)
 .debug_str     0x0000000000002c3e       0x63 ../RTOS_bsp/\libucosii_bsp.a(altera_avalon_jtag_uart_read.o)
                                        0x3fd (size before relaxing)
 .debug_str     0x0000000000002ca1       0x4a ../RTOS_bsp/\libucosii_bsp.a(altera_avalon_jtag_uart_write.o)
                                        0x3fe (size before relaxing)
 .debug_str     0x0000000000002ceb       0x66 ../RTOS_bsp/\libucosii_bsp.a(altera_avalon_timer_sc.o)
                                        0x252 (size before relaxing)
 .debug_str     0x0000000000002d51       0x77 ../RTOS_bsp/\libucosii_bsp.a(altera_avalon_uart_fd.o)
                                        0x407 (size before relaxing)
 .debug_str     0x0000000000002dc8       0xad ../RTOS_bsp/\libucosii_bsp.a(altera_avalon_uart_init.o)
                                        0x3fc (size before relaxing)
 .debug_str     0x0000000000002e75       0x4f ../RTOS_bsp/\libucosii_bsp.a(altera_avalon_uart_read.o)
                                        0x3d0 (size before relaxing)
 .debug_str     0x0000000000002ec4       0x49 ../RTOS_bsp/\libucosii_bsp.a(altera_avalon_uart_write.o)
                                        0x3c4 (size before relaxing)
 .debug_str     0x0000000000002f0d       0x59 ../RTOS_bsp/\libucosii_bsp.a(alt_alarm_start.o)
                                        0x285 (size before relaxing)
 .debug_str     0x0000000000002f66       0x34 ../RTOS_bsp/\libucosii_bsp.a(alt_dcache_flush_all.o)
                                        0x15c (size before relaxing)
 .debug_str     0x0000000000002f9a       0x34 ../RTOS_bsp/\libucosii_bsp.a(alt_dev_llist_insert.o)
                                        0x1d3 (size before relaxing)
 .debug_str     0x0000000000002fce       0x48 ../RTOS_bsp/\libucosii_bsp.a(alt_do_ctors.o)
                                         0xd7 (size before relaxing)
 .debug_str     0x0000000000003016       0x4c ../RTOS_bsp/\libucosii_bsp.a(alt_do_dtors.o)
                                         0xd6 (size before relaxing)
 .debug_str     0x0000000000003062       0x34 ../RTOS_bsp/\libucosii_bsp.a(alt_icache_flush_all.o)
                                        0x15c (size before relaxing)
 .debug_str     0x0000000000003096       0xbd ../RTOS_bsp/\libucosii_bsp.a(alt_iic.o)
                                        0x245 (size before relaxing)
 .debug_str     0x0000000000003153       0x4c ../RTOS_bsp/\libucosii_bsp.a(alt_iic_isr_register.o)
                                        0x1ef (size before relaxing)
 .debug_str     0x000000000000319f       0x56 ../RTOS_bsp/\libucosii_bsp.a(alt_io_redirect.o)
                                        0x34d (size before relaxing)
 .debug_str     0x00000000000031f5       0x3a ../RTOS_bsp/\libucosii_bsp.a(alt_irq_handler.o)
                                        0x1c6 (size before relaxing)
 .debug_str     0x000000000000322f       0x17 ../RTOS_bsp/\libucosii_bsp.a(alt_irq_vars.o)
                                        0x141 (size before relaxing)
 .debug_str     0x0000000000003246       0x29 ../RTOS_bsp/\libucosii_bsp.a(alt_open.o)
                                        0x27a (size before relaxing)
 .debug_str     0x000000000000326f       0x4a ../RTOS_bsp/\libucosii_bsp.a(alt_tick.o)
                                        0x266 (size before relaxing)
 .debug_str     0x00000000000032b9       0x3b ../RTOS_bsp/\libucosii_bsp.a(altera_nios2_gen2_irq.o)
                                        0x163 (size before relaxing)
 .debug_str     0x00000000000032f4       0xd5 ../RTOS_bsp/\libucosii_bsp.a(os_cpu_c.o)
                                        0x844 (size before relaxing)
 .debug_str     0x00000000000033c9       0x24 ../RTOS_bsp/\libucosii_bsp.a(alt_find_dev.o)
                                        0x223 (size before relaxing)
 .debug_str     0x00000000000033ed       0x26 ../RTOS_bsp/\libucosii_bsp.a(alt_find_file.o)
                                        0x231 (size before relaxing)
 .debug_str     0x0000000000003413       0x30 ../RTOS_bsp/\libucosii_bsp.a(alt_get_fd.o)
                                        0x2cf (size before relaxing)
 .debug_str     0x0000000000003443       0x2c ../RTOS_bsp/\libucosii_bsp.a(alt_icache_flush.o)
                                        0x162 (size before relaxing)
 .debug_str     0x000000000000346f      0x48b ../RTOS_bsp/\libucosii_bsp.a(alt_instruction_exception_entry.o)
                                        0x5a7 (size before relaxing)
 .debug_str     0x00000000000038fa       0x7e c:/intelfpga_lite/18.1/nios2eds/bin/gnu/h-x86_64-mingw32/bin/../lib/gcc/nios2-elf/5.3.0/../../../../../H-x86_64-mingw32/nios2-elf/lib\libc.a(lib_a-atexit.o)
                                        0x207 (size before relaxing)
 .debug_str     0x0000000000003978       0x49 c:/intelfpga_lite/18.1/nios2eds/bin/gnu/h-x86_64-mingw32/bin/../lib/gcc/nios2-elf/5.3.0/../../../../../H-x86_64-mingw32/nios2-elf/lib\libc.a(lib_a-exit.o)
                                        0x5a4 (size before relaxing)
 .debug_str     0x00000000000039c1       0x47 c:/intelfpga_lite/18.1/nios2eds/bin/gnu/h-x86_64-mingw32/bin/../lib/gcc/nios2-elf/5.3.0/../../../../../H-x86_64-mingw32/nios2-elf/lib\libc.a(lib_a-fputs.o)
                                        0x605 (size before relaxing)
 .debug_str     0x0000000000003a08       0x41 c:/intelfpga_lite/18.1/nios2eds/bin/gnu/h-x86_64-mingw32/bin/../lib/gcc/nios2-elf/5.3.0/../../../../../H-x86_64-mingw32/nios2-elf/lib\libc.a(lib_a-memcmp.o)
                                        0x1ca (size before relaxing)
 .debug_str     0x0000000000003a49       0x4e c:/intelfpga_lite/18.1/nios2eds/bin/gnu/h-x86_64-mingw32/bin/../lib/gcc/nios2-elf/5.3.0/../../../../../H-x86_64-mingw32/nios2-elf/lib\libc.a(lib_a-putc.o)
                                        0x5bb (size before relaxing)
 .debug_str     0x0000000000003a97       0x3f c:/intelfpga_lite/18.1/nios2eds/bin/gnu/h-x86_64-mingw32/bin/../lib/gcc/nios2-elf/5.3.0/../../../../../H-x86_64-mingw32/nios2-elf/lib\libc.a(lib_a-wbuf.o)
                                        0x5bf (size before relaxing)
 .debug_str     0x0000000000003ad6       0x3c c:/intelfpga_lite/18.1/nios2eds/bin/gnu/h-x86_64-mingw32/bin/../lib/gcc/nios2-elf/5.3.0/../../../../../H-x86_64-mingw32/nios2-elf/lib\libc.a(lib_a-__atexit.o)
                                        0x5dc (size before relaxing)
 .debug_str     0x0000000000003b12       0x5d c:/intelfpga_lite/18.1/nios2eds/bin/gnu/h-x86_64-mingw32/bin/../lib/gcc/nios2-elf/5.3.0/../../../../../H-x86_64-mingw32/nios2-elf/lib\libc.a(lib_a-__call_atexit.o)
                                        0x5c8 (size before relaxing)
 .debug_str     0x0000000000003b6f       0x2a ../RTOS_bsp/\libucosii_bsp.a(alt_exit.o)
                                        0x19a (size before relaxing)

.debug_loc      0x0000000000000000     0x4f48
 *(.debug_loc)
 .debug_loc     0x0000000000000000      0x4ce c:/intelfpga_lite/18.1/nios2eds/bin/gnu/h-x86_64-mingw32/bin/../lib/gcc/nios2-elf/5.3.0\libgcc.a(lib2-divmod.o)
 .debug_loc     0x00000000000004ce      0x117 c:/intelfpga_lite/18.1/nios2eds/bin/gnu/h-x86_64-mingw32/bin/../lib/gcc/nios2-elf/5.3.0/../../../../../H-x86_64-mingw32/nios2-elf/lib\libc.a(lib_a-puts.o)
 .debug_loc     0x00000000000005e5       0x47 c:/intelfpga_lite/18.1/nios2eds/bin/gnu/h-x86_64-mingw32/bin/../lib/gcc/nios2-elf/5.3.0/../../../../../H-x86_64-mingw32/nios2-elf/lib\libc.a(lib_a-strlen.o)
 .debug_loc     0x000000000000062c      0x2ee c:/intelfpga_lite/18.1/nios2eds/bin/gnu/h-x86_64-mingw32/bin/../lib/gcc/nios2-elf/5.3.0/../../../../../H-x86_64-mingw32/nios2-elf/lib\libc.a(lib_a-findfp.o)
 .debug_loc     0x000000000000091a      0x5d7 c:/intelfpga_lite/18.1/nios2eds/bin/gnu/h-x86_64-mingw32/bin/../lib/gcc/nios2-elf/5.3.0/../../../../../H-x86_64-mingw32/nios2-elf/lib\libc.a(lib_a-fvwrite.o)
 .debug_loc     0x0000000000000ef1      0x25b c:/intelfpga_lite/18.1/nios2eds/bin/gnu/h-x86_64-mingw32/bin/../lib/gcc/nios2-elf/5.3.0/../../../../../H-x86_64-mingw32/nios2-elf/lib\libc.a(lib_a-fwalk.o)
 .debug_loc     0x000000000000114c      0xb1b c:/intelfpga_lite/18.1/nios2eds/bin/gnu/h-x86_64-mingw32/bin/../lib/gcc/nios2-elf/5.3.0/../../../../../H-x86_64-mingw32/nios2-elf/lib\libc.a(lib_a-mallocr.o)
 .debug_loc     0x0000000000001c67      0x1a1 c:/intelfpga_lite/18.1/nios2eds/bin/gnu/h-x86_64-mingw32/bin/../lib/gcc/nios2-elf/5.3.0/../../../../../H-x86_64-mingw32/nios2-elf/lib\libc.a(lib_a-memchr.o)
 .debug_loc     0x0000000000001e08      0x266 c:/intelfpga_lite/18.1/nios2eds/bin/gnu/h-x86_64-mingw32/bin/../lib/gcc/nios2-elf/5.3.0/../../../../../H-x86_64-mingw32/nios2-elf/lib\libc.a(lib_a-memcpy.o)
 .debug_loc     0x000000000000206e      0x308 c:/intelfpga_lite/18.1/nios2eds/bin/gnu/h-x86_64-mingw32/bin/../lib/gcc/nios2-elf/5.3.0/../../../../../H-x86_64-mingw32/nios2-elf/lib\libc.a(lib_a-memmove.o)
 .debug_loc     0x0000000000002376      0x1a6 c:/intelfpga_lite/18.1/nios2eds/bin/gnu/h-x86_64-mingw32/bin/../lib/gcc/nios2-elf/5.3.0/../../../../../H-x86_64-mingw32/nios2-elf/lib\libc.a(lib_a-memset.o)
 .debug_loc     0x000000000000251c      0xde4 c:/intelfpga_lite/18.1/nios2eds/bin/gnu/h-x86_64-mingw32/bin/../lib/gcc/nios2-elf/5.3.0/../../../../../H-x86_64-mingw32/nios2-elf/lib\libc.a(lib_a-reallocr.o)
 .debug_loc     0x0000000000003300       0x58 c:/intelfpga_lite/18.1/nios2eds/bin/gnu/h-x86_64-mingw32/bin/../lib/gcc/nios2-elf/5.3.0/../../../../../H-x86_64-mingw32/nios2-elf/lib\libc.a(lib_a-sbrkr.o)
 .debug_loc     0x0000000000003358      0x33a c:/intelfpga_lite/18.1/nios2eds/bin/gnu/h-x86_64-mingw32/bin/../lib/gcc/nios2-elf/5.3.0/../../../../../H-x86_64-mingw32/nios2-elf/lib\libc.a(lib_a-stdio.o)
 .debug_loc     0x0000000000003692       0xb0 c:/intelfpga_lite/18.1/nios2eds/bin/gnu/h-x86_64-mingw32/bin/../lib/gcc/nios2-elf/5.3.0/../../../../../H-x86_64-mingw32/nios2-elf/lib\libc.a(lib_a-writer.o)
 .debug_loc     0x0000000000003742       0xa2 c:/intelfpga_lite/18.1/nios2eds/bin/gnu/h-x86_64-mingw32/bin/../lib/gcc/nios2-elf/5.3.0/../../../../../H-x86_64-mingw32/nios2-elf/lib\libc.a(lib_a-wsetup.o)
 .debug_loc     0x00000000000037e4       0x58 c:/intelfpga_lite/18.1/nios2eds/bin/gnu/h-x86_64-mingw32/bin/../lib/gcc/nios2-elf/5.3.0/../../../../../H-x86_64-mingw32/nios2-elf/lib\libc.a(closer.o)
 .debug_loc     0x000000000000383c      0x199 c:/intelfpga_lite/18.1/nios2eds/bin/gnu/h-x86_64-mingw32/bin/../lib/gcc/nios2-elf/5.3.0/../../../../../H-x86_64-mingw32/nios2-elf/lib\libc.a(lib_a-fclose.o)
 .debug_loc     0x00000000000039d5      0x36f c:/intelfpga_lite/18.1/nios2eds/bin/gnu/h-x86_64-mingw32/bin/../lib/gcc/nios2-elf/5.3.0/../../../../../H-x86_64-mingw32/nios2-elf/lib\libc.a(lib_a-fflush.o)
 .debug_loc     0x0000000000003d44      0x4e7 c:/intelfpga_lite/18.1/nios2eds/bin/gnu/h-x86_64-mingw32/bin/../lib/gcc/nios2-elf/5.3.0/../../../../../H-x86_64-mingw32/nios2-elf/lib\libc.a(lib_a-freer.o)
 .debug_loc     0x000000000000422b       0xb0 c:/intelfpga_lite/18.1/nios2eds/bin/gnu/h-x86_64-mingw32/bin/../lib/gcc/nios2-elf/5.3.0/../../../../../H-x86_64-mingw32/nios2-elf/lib\libc.a(lib_a-lseekr.o)
 .debug_loc     0x00000000000042db      0x122 c:/intelfpga_lite/18.1/nios2eds/bin/gnu/h-x86_64-mingw32/bin/../lib/gcc/nios2-elf/5.3.0/../../../../../H-x86_64-mingw32/nios2-elf/lib\libc.a(lib_a-makebuf.o)
 .debug_loc     0x00000000000043fd       0xb0 c:/intelfpga_lite/18.1/nios2eds/bin/gnu/h-x86_64-mingw32/bin/../lib/gcc/nios2-elf/5.3.0/../../../../../H-x86_64-mingw32/nios2-elf/lib\libc.a(lib_a-readr.o)
 .debug_loc     0x00000000000044ad       0x84 c:/intelfpga_lite/18.1/nios2eds/bin/gnu/h-x86_64-mingw32/bin/../lib/gcc/nios2-elf/5.3.0/../../../../../H-x86_64-mingw32/nios2-elf/lib\libc.a(lib_a-fstatr.o)
 .debug_loc     0x0000000000004531       0x58 c:/intelfpga_lite/18.1/nios2eds/bin/gnu/h-x86_64-mingw32/bin/../lib/gcc/nios2-elf/5.3.0/../../../../../H-x86_64-mingw32/nios2-elf/lib\libc.a(lib_a-isattyr.o)
 .debug_loc     0x0000000000004589       0x2c c:/intelfpga_lite/18.1/nios2eds/bin/gnu/h-x86_64-mingw32/bin/../lib/gcc/nios2-elf/5.3.0/../../../../../H-x86_64-mingw32/nios2-elf/lib\libc.a(lib_a-atexit.o)
 .debug_loc     0x00000000000045b5       0x1e c:/intelfpga_lite/18.1/nios2eds/bin/gnu/h-x86_64-mingw32/bin/../lib/gcc/nios2-elf/5.3.0/../../../../../H-x86_64-mingw32/nios2-elf/lib\libc.a(lib_a-exit.o)
 .debug_loc     0x00000000000045d3      0x126 c:/intelfpga_lite/18.1/nios2eds/bin/gnu/h-x86_64-mingw32/bin/../lib/gcc/nios2-elf/5.3.0/../../../../../H-x86_64-mingw32/nios2-elf/lib\libc.a(lib_a-fputs.o)
 .debug_loc     0x00000000000046f9      0x126 c:/intelfpga_lite/18.1/nios2eds/bin/gnu/h-x86_64-mingw32/bin/../lib/gcc/nios2-elf/5.3.0/../../../../../H-x86_64-mingw32/nios2-elf/lib\libc.a(lib_a-memcmp.o)
 .debug_loc     0x000000000000481f      0x224 c:/intelfpga_lite/18.1/nios2eds/bin/gnu/h-x86_64-mingw32/bin/../lib/gcc/nios2-elf/5.3.0/../../../../../H-x86_64-mingw32/nios2-elf/lib\libc.a(lib_a-putc.o)
 .debug_loc     0x0000000000004a43      0x1b2 c:/intelfpga_lite/18.1/nios2eds/bin/gnu/h-x86_64-mingw32/bin/../lib/gcc/nios2-elf/5.3.0/../../../../../H-x86_64-mingw32/nios2-elf/lib\libc.a(lib_a-wbuf.o)
 .debug_loc     0x0000000000004bf5      0x185 c:/intelfpga_lite/18.1/nios2eds/bin/gnu/h-x86_64-mingw32/bin/../lib/gcc/nios2-elf/5.3.0/../../../../../H-x86_64-mingw32/nios2-elf/lib\libc.a(lib_a-__atexit.o)
 .debug_loc     0x0000000000004d7a      0x1ce c:/intelfpga_lite/18.1/nios2eds/bin/gnu/h-x86_64-mingw32/bin/../lib/gcc/nios2-elf/5.3.0/../../../../../H-x86_64-mingw32/nios2-elf/lib\libc.a(lib_a-__call_atexit.o)

.debug_macinfo
 *(.debug_macinfo)

.debug_weaknames
 *(.debug_weaknames)

.debug_funcnames
 *(.debug_funcnames)

.debug_typenames
 *(.debug_typenames)

.debug_varnames
 *(.debug_varnames)

.debug_alt_sim_info
                0x0000000000000000       0x30
 *(.debug_alt_sim_info)
 .debug_alt_sim_info
                0x0000000000000000       0x30 ../RTOS_bsp//obj/HAL/src/crt0.o
                0x0000000004000000                __alt_data_end = 0x4000000
                0x0000000004000000                PROVIDE (__alt_stack_pointer, __alt_data_end)
                [!provide]                        PROVIDE (__alt_stack_limit, __alt_stack_base)
                0x0000000000017c9c                PROVIDE (__alt_heap_start, end)
                0x0000000004000000                PROVIDE (__alt_heap_limit, 0x4000000)
OUTPUT(RTOS.elf elf32-littlenios2)

.debug_ranges   0x0000000000000000      0x728
 .debug_ranges  0x0000000000000000       0x20 ../RTOS_bsp//obj/HAL/src/crt0.o
 .debug_ranges  0x0000000000000020       0x60 c:/intelfpga_lite/18.1/nios2eds/bin/gnu/h-x86_64-mingw32/bin/../lib/gcc/nios2-elf/5.3.0\libgcc.a(lib2-divmod.o)
 .debug_ranges  0x0000000000000080       0x30 c:/intelfpga_lite/18.1/nios2eds/bin/gnu/h-x86_64-mingw32/bin/../lib/gcc/nios2-elf/5.3.0/../../../../../H-x86_64-mingw32/nios2-elf/lib\libc.a(lib_a-puts.o)
 .debug_ranges  0x00000000000000b0       0x10 c:/intelfpga_lite/18.1/nios2eds/bin/gnu/h-x86_64-mingw32/bin/../lib/gcc/nios2-elf/5.3.0/../../../../../H-x86_64-mingw32/nios2-elf/lib\libc.a(lib_a-strlen.o)
 .debug_ranges  0x00000000000000c0       0xc8 c:/intelfpga_lite/18.1/nios2eds/bin/gnu/h-x86_64-mingw32/bin/../lib/gcc/nios2-elf/5.3.0/../../../../../H-x86_64-mingw32/nios2-elf/lib\libc.a(lib_a-findfp.o)
 .debug_ranges  0x0000000000000188       0x30 c:/intelfpga_lite/18.1/nios2eds/bin/gnu/h-x86_64-mingw32/bin/../lib/gcc/nios2-elf/5.3.0/../../../../../H-x86_64-mingw32/nios2-elf/lib\libc.a(lib_a-fvwrite.o)
 .debug_ranges  0x00000000000001b8       0x18 c:/intelfpga_lite/18.1/nios2eds/bin/gnu/h-x86_64-mingw32/bin/../lib/gcc/nios2-elf/5.3.0/../../../../../H-x86_64-mingw32/nios2-elf/lib\libc.a(lib_a-fwalk.o)
 .debug_ranges  0x00000000000001d0       0x48 c:/intelfpga_lite/18.1/nios2eds/bin/gnu/h-x86_64-mingw32/bin/../lib/gcc/nios2-elf/5.3.0/../../../../../H-x86_64-mingw32/nios2-elf/lib\libc.a(lib_a-mallocr.o)
 .debug_ranges  0x0000000000000218       0x10 c:/intelfpga_lite/18.1/nios2eds/bin/gnu/h-x86_64-mingw32/bin/../lib/gcc/nios2-elf/5.3.0/../../../../../H-x86_64-mingw32/nios2-elf/lib\libc.a(lib_a-memchr.o)
 .debug_ranges  0x0000000000000228       0x10 c:/intelfpga_lite/18.1/nios2eds/bin/gnu/h-x86_64-mingw32/bin/../lib/gcc/nios2-elf/5.3.0/../../../../../H-x86_64-mingw32/nios2-elf/lib\libc.a(lib_a-memcpy.o)
 .debug_ranges  0x0000000000000238       0x10 c:/intelfpga_lite/18.1/nios2eds/bin/gnu/h-x86_64-mingw32/bin/../lib/gcc/nios2-elf/5.3.0/../../../../../H-x86_64-mingw32/nios2-elf/lib\libc.a(lib_a-memmove.o)
 .debug_ranges  0x0000000000000248       0x10 c:/intelfpga_lite/18.1/nios2eds/bin/gnu/h-x86_64-mingw32/bin/../lib/gcc/nios2-elf/5.3.0/../../../../../H-x86_64-mingw32/nios2-elf/lib\libc.a(lib_a-memset.o)
 .debug_ranges  0x0000000000000258      0x148 c:/intelfpga_lite/18.1/nios2eds/bin/gnu/h-x86_64-mingw32/bin/../lib/gcc/nios2-elf/5.3.0/../../../../../H-x86_64-mingw32/nios2-elf/lib\libc.a(lib_a-reallocr.o)
 .debug_ranges  0x00000000000003a0       0x10 c:/intelfpga_lite/18.1/nios2eds/bin/gnu/h-x86_64-mingw32/bin/../lib/gcc/nios2-elf/5.3.0/../../../../../H-x86_64-mingw32/nios2-elf/lib\libc.a(lib_a-sbrkr.o)
 .debug_ranges  0x00000000000003b0       0x30 c:/intelfpga_lite/18.1/nios2eds/bin/gnu/h-x86_64-mingw32/bin/../lib/gcc/nios2-elf/5.3.0/../../../../../H-x86_64-mingw32/nios2-elf/lib\libc.a(lib_a-stdio.o)
 .debug_ranges  0x00000000000003e0       0x10 c:/intelfpga_lite/18.1/nios2eds/bin/gnu/h-x86_64-mingw32/bin/../lib/gcc/nios2-elf/5.3.0/../../../../../H-x86_64-mingw32/nios2-elf/lib\libc.a(lib_a-writer.o)
 .debug_ranges  0x00000000000003f0       0x40 c:/intelfpga_lite/18.1/nios2eds/bin/gnu/h-x86_64-mingw32/bin/../lib/gcc/nios2-elf/5.3.0/../../../../../H-x86_64-mingw32/nios2-elf/lib\libc.a(lib_a-wsetup.o)
 .debug_ranges  0x0000000000000430       0x10 c:/intelfpga_lite/18.1/nios2eds/bin/gnu/h-x86_64-mingw32/bin/../lib/gcc/nios2-elf/5.3.0/../../../../../H-x86_64-mingw32/nios2-elf/lib\libc.a(closer.o)
 .debug_ranges  0x0000000000000440       0x48 c:/intelfpga_lite/18.1/nios2eds/bin/gnu/h-x86_64-mingw32/bin/../lib/gcc/nios2-elf/5.3.0/../../../../../H-x86_64-mingw32/nios2-elf/lib\libc.a(lib_a-fclose.o)
 .debug_ranges  0x0000000000000488       0x58 c:/intelfpga_lite/18.1/nios2eds/bin/gnu/h-x86_64-mingw32/bin/../lib/gcc/nios2-elf/5.3.0/../../../../../H-x86_64-mingw32/nios2-elf/lib\libc.a(lib_a-fflush.o)
 .debug_ranges  0x00000000000004e0       0x18 c:/intelfpga_lite/18.1/nios2eds/bin/gnu/h-x86_64-mingw32/bin/../lib/gcc/nios2-elf/5.3.0/../../../../../H-x86_64-mingw32/nios2-elf/lib\libc.a(lib_a-freer.o)
 .debug_ranges  0x00000000000004f8       0x10 c:/intelfpga_lite/18.1/nios2eds/bin/gnu/h-x86_64-mingw32/bin/../lib/gcc/nios2-elf/5.3.0/../../../../../H-x86_64-mingw32/nios2-elf/lib\libc.a(lib_a-lseekr.o)
 .debug_ranges  0x0000000000000508       0x10 c:/intelfpga_lite/18.1/nios2eds/bin/gnu/h-x86_64-mingw32/bin/../lib/gcc/nios2-elf/5.3.0/../../../../../H-x86_64-mingw32/nios2-elf/lib\libc.a(lib_a-makebuf.o)
 .debug_ranges  0x0000000000000518       0x10 c:/intelfpga_lite/18.1/nios2eds/bin/gnu/h-x86_64-mingw32/bin/../lib/gcc/nios2-elf/5.3.0/../../../../../H-x86_64-mingw32/nios2-elf/lib\libc.a(lib_a-readr.o)
 .debug_ranges  0x0000000000000528       0x10 c:/intelfpga_lite/18.1/nios2eds/bin/gnu/h-x86_64-mingw32/bin/../lib/gcc/nios2-elf/5.3.0/../../../../../H-x86_64-mingw32/nios2-elf/lib\libc.a(lib_a-fstatr.o)
 .debug_ranges  0x0000000000000538       0x10 c:/intelfpga_lite/18.1/nios2eds/bin/gnu/h-x86_64-mingw32/bin/../lib/gcc/nios2-elf/5.3.0/../../../../../H-x86_64-mingw32/nios2-elf/lib\libc.a(lib_a-isattyr.o)
 .debug_ranges  0x0000000000000548       0x30 ../RTOS_bsp/\libucosii_bsp.a(altera_avalon_jtag_uart_init.o)
 .debug_ranges  0x0000000000000578       0x18 ../RTOS_bsp/\libucosii_bsp.a(altera_avalon_jtag_uart_read.o)
 .debug_ranges  0x0000000000000590       0x28 ../RTOS_bsp/\libucosii_bsp.a(alt_irq_entry.o)
 .debug_ranges  0x00000000000005b8       0x10 ../RTOS_bsp/\libucosii_bsp.a(alt_irq_handler.o)
 .debug_ranges  0x00000000000005c8       0x30 ../RTOS_bsp/\libucosii_bsp.a(alt_exception_entry.o)
 .debug_ranges  0x00000000000005f8       0x18 ../RTOS_bsp/\libucosii_bsp.a(alt_instruction_exception_entry.o)
 .debug_ranges  0x0000000000000610       0x10 c:/intelfpga_lite/18.1/nios2eds/bin/gnu/h-x86_64-mingw32/bin/../lib/gcc/nios2-elf/5.3.0/../../../../../H-x86_64-mingw32/nios2-elf/lib\libc.a(lib_a-atexit.o)
 .debug_ranges  0x0000000000000620       0x10 c:/intelfpga_lite/18.1/nios2eds/bin/gnu/h-x86_64-mingw32/bin/../lib/gcc/nios2-elf/5.3.0/../../../../../H-x86_64-mingw32/nios2-elf/lib\libc.a(lib_a-exit.o)
 .debug_ranges  0x0000000000000630       0x30 c:/intelfpga_lite/18.1/nios2eds/bin/gnu/h-x86_64-mingw32/bin/../lib/gcc/nios2-elf/5.3.0/../../../../../H-x86_64-mingw32/nios2-elf/lib\libc.a(lib_a-fputs.o)
 .debug_ranges  0x0000000000000660       0x10 c:/intelfpga_lite/18.1/nios2eds/bin/gnu/h-x86_64-mingw32/bin/../lib/gcc/nios2-elf/5.3.0/../../../../../H-x86_64-mingw32/nios2-elf/lib\libc.a(lib_a-memcmp.o)
 .debug_ranges  0x0000000000000670       0x48 c:/intelfpga_lite/18.1/nios2eds/bin/gnu/h-x86_64-mingw32/bin/../lib/gcc/nios2-elf/5.3.0/../../../../../H-x86_64-mingw32/nios2-elf/lib\libc.a(lib_a-putc.o)
 .debug_ranges  0x00000000000006b8       0x30 c:/intelfpga_lite/18.1/nios2eds/bin/gnu/h-x86_64-mingw32/bin/../lib/gcc/nios2-elf/5.3.0/../../../../../H-x86_64-mingw32/nios2-elf/lib\libc.a(lib_a-wbuf.o)
 .debug_ranges  0x00000000000006e8       0x10 c:/intelfpga_lite/18.1/nios2eds/bin/gnu/h-x86_64-mingw32/bin/../lib/gcc/nios2-elf/5.3.0/../../../../../H-x86_64-mingw32/nios2-elf/lib\libc.a(lib_a-__atexit.o)
 .debug_ranges  0x00000000000006f8       0x30 c:/intelfpga_lite/18.1/nios2eds/bin/gnu/h-x86_64-mingw32/bin/../lib/gcc/nios2-elf/5.3.0/../../../../../H-x86_64-mingw32/nios2-elf/lib\libc.a(lib_a-__call_atexit.o)
